(dp0
S'strain'
p1
S'91-krypt'
p2
sS'categorias'
p3
cnumpy.core.multiarray
_reconstruct
p4
(cnumpy
ndarray
p5
(I0
tp6
S'b'
p7
tp8
Rp9
(I1
(I1
tp10
cnumpy
dtype
p11
(S'O8'
p12
I0
I1
tp13
Rp14
(I3
S'|'
p15
NNNI-1
I-1
I63
tp16
bI00
(lp17
S'Indica'
p18
atp19
bsS'data_strain'
p20
(lp21
(dp22
S'reporte'
p23
VAnd when she wears off, u left feeling energetic and uplifetd. So not only will she chill you for healing, once u recovered by relaxing, you left feeling upbeat and happy. True true mental disorder medication.
p24
sS'efectos'
p25
(lp26
sS'sabores'
p27
(lp28
sS'usuario'
p29
VNeilyates
p30
sa(dp31
g23
VObtained this from tweed under their name Morris. They said it was tested at 18%.  I found I became awake, alert and almost hyper.  Also, pain would melt away.  I didn&#39;t experience a *crash*.  But I enjoyed this strand in the company of others so I find if I&#39;m around other people I don&#39;t get as bad of a *crash*. 
p32
sg25
(lp33
S'Hungry'
p34
aS'Dry Mouth'
p35
asg27
(lp36
S'Earthy'
p37
aS'Pungent'
p38
asg29
VPreciousPie
p39
sa(dp40
g23
VFast head hitting high that slowly mellows down to more of a weightless feeling, leaving you floating amongst yourself.
p41
sg25
(lp42
S'Creative'
p43
aS'Euphoric'
p44
aS'Giggly'
p45
aS'Happy'
p46
aS'Relaxed'
p47
asg27
(lp48
sg29
VBudsnbuds
p49
sas.