(dp0
S'strain'
p1
S'afghanica'
p2
sS'categorias'
p3
cnumpy.core.multiarray
_reconstruct
p4
(cnumpy
ndarray
p5
(I0
tp6
S'b'
p7
tp8
Rp9
(I1
(I1
tp10
cnumpy
dtype
p11
(S'O8'
p12
I0
I1
tp13
Rp14
(I3
S'|'
p15
NNNI-1
I-1
I63
tp16
bI00
(lp17
S'Hybrid'
p18
atp19
bsS'data_strain'
p20
(lp21
(dp22
S'reporte'
p23
VWhat I got was from W.F.C. Called &quot;reserve&quot; so I had to google what it was. 4 because I just tried. When I review I try to do a 3 hit, wait a bit and after that state my opinion... I&#39;ve noticed that at times... the second time even with same bag it changes. With that being said. It&#39;s a very &quot;high&quot; mellow-like FIRE! Good referral from budtender!!  I love it.
p24
sS'efectos'
p25
(lp26
S'Aroused'
p27
aS'Energetic'
p28
aS'Euphoric'
p29
aS'Happy'
p30
aS'Relaxed'
p31
aS'Tingly'
p32
aS'Uplifted'
p33
aS'Anxious'
p34
asS'sabores'
p35
(lp36
S'Tea'
p37
asS'usuario'
p38
VShnovets
p39
sa(dp40
g23
VI love me some afghanica i find when i smoke it i get a real heavy sativa for the first 15 minutes then in like 30 mins it will just feel like a heavy indica i feel like just relaxing, its pretty potent
p41
sg25
(lp42
S'Creative'
p43
ag29
aS'Focused'
p44
aS'Sleepy'
p45
aS'Dizzy'
p46
aS'Dry Eyes'
p47
aS'Dry Mouth'
p48
asg35
(lp49
sg38
VEric420
p50
sa(dp51
g23
Vrealy good taste and the high was also good :) 
p52
sg25
(lp53
sg35
(lp54
sg38
Vhazeblaze420
p55
sas.