(dp0
S'strain'
p1
S'alpha-og'
p2
sS'categorias'
p3
cnumpy.core.multiarray
_reconstruct
p4
(cnumpy
ndarray
p5
(I0
tp6
S'b'
p7
tp8
Rp9
(I1
(I1
tp10
cnumpy
dtype
p11
(S'O8'
p12
I0
I1
tp13
Rp14
(I3
S'|'
p15
NNNI-1
I-1
I63
tp16
bI00
(lp17
S'Hybrid'
p18
atp19
bsS'data_strain'
p20
(lp21
(dp22
S'reporte'
p23
VAlpha Og is an freaking amazing indica! soft flower and such amazing taste and smell! if your looking for an outstanding indica I would go with the Alpha Og all day! honestly best body high ever
p24
sS'efectos'
p25
(lp26
S'Euphoric'
p27
aS'Happy'
p28
aS'Hungry'
p29
aS'Relaxed'
p30
aS'Headache'
p31
asS'sabores'
p32
(lp33
sS'usuario'
p34
Valphacole116
p35
sa(dp36
g23
VAn easy peasy bud with an imagination for relaxation. On this the hyperventilating hosts of YouTube make sense, as they slow down but remain consistent. The world glows with opportunity. I love my life.
p37
sg25
(lp38
S'Creative'
p39
ag27
ag30
asg32
(lp40
S'Earthy'
p41
aS'Lavender'
p42
aS'Pine'
p43
asg34
Vsmpad
p44
sa(dp45
g23
VExcellent for evenings or bedtime, overall superb.
p46
sg25
(lp47
sg32
(lp48
sg34
VRovertW
p49
sa(dp50
g23
VDefinitely one of the best strains in the last 5/6 years!
p51
sg25
(lp52
S'Focused'
p53
ag30
aS'Dry Mouth'
p54
asg32
(lp55
S'Spicy/Herbal'
p56
aS'Sweet'
p57
asg34
Vsoulfoodndro
p58
sa(dp59
g23
VRelaxed and so sleepy when you smoke this strain!! good buds!!!
p60
sg25
(lp61
g28
ag30
aS'Sleepy'
p62
asg32
(lp63
sg34
Vneyman
p64
sa(dp65
g23
VDelicious, potent, and an extremely heavy hitter \u2014 Alpha OG is not one to be messed with. I picked this up based on smell alone and was extremely satisfied. With a fresh, earthy taste, it feels like you&#39;re taking a breath of pine forest air and hits silky smooth. Boasting a fairly dynamic high, an excellent peak, and a euphoric come down, Alpha OG is a great strain to keep in rotation.
p66
sg25
(lp67
g39
ag27
ag53
ag28
ag30
aS'Uplifted'
p68
ag54
asg32
(lp69
g41
ag43
ag57
asg34
Vostra
p70
sa(dp71
g23
VThis strain is always fire. Always consistent. Great High!
p72
sg25
(lp73
g28
ag30
asg32
(lp74
g41
asg34
VDirtmieser
p75
sa(dp76
g23
VThis bud was delicious. Great high. Very happy and uplifted from this bud. It went will with Xbox and a beef,
p77
sg25
(lp78
g27
aS'Giggly'
p79
ag28
ag29
aS'Talkative'
p80
ag68
aS'Dizzy'
p81
aS'Paranoid'
p82
asg32
(lp83
sg34
VGoosefraba
p84
sa(dp85
g23
Va wonder to gaze into, great smell, big fluffy buds. smokes well, the high is decent.
p86
sg25
(lp87
g29
ag30
ag81
asg32
(lp88
S'Berry'
p89
ag41
aS'Tea'
p90
asg34
Vajemaner
p91
sa(dp92
g23
VFire ass shit good high good chill night w your girl.\u000a\u000a\u000a\u000a
p93
sg25
(lp94
sg32
(lp95
sg34
V666runforest
p96
sa(dp97
g23
VOne of San Diego&#39;s finest OGs\u000a
p98
sg25
(lp99
g27
ag28
ag29
ag30
ag80
aS'Tingly'
p100
asg32
(lp101
g43
asg34
Vandyman619
p102
sa(dp103
g23
VI love this stuff I will buy it again
p104
sg25
(lp105
sg32
(lp106
sg34
VRangoStahl
p107
sa(dp108
g23
VThis strain is incredible, just won 1st place potency at the 2017 San Diego Farmers Market! Alpha medic puts out some of the best strains in San Diego, and this alpha is the top of the line. Don&#39;t miss out on this multiple award winner!!!&#128293;&#128293;&#128293;
p109
sg25
(lp110
sg32
(lp111
sg34
Vrickyskip
p112
sa(dp113
g23
VThis strain is always fire. Always consistent. Great High!
p114
sg25
(lp115
g28
ag30
asg32
(lp116
g41
asg34
VDirtmieser
p117
sa(dp118
g23
VBeautifully structured nugs covered in trichomes with short red hairs scattered throughout these flowers. After two bong rips I&#39;m feeling relaxed but able to stay focused on whatever I choose. This would be a strain that I&#39;d smoke before bed forsure. Definitely potent. This nug has many different scents to it ranging from diesel to mint to that earthy og scent.
p119
sg25
(lp120
g53
ag30
ag100
ag54
asg32
(lp121
S'Diesel'
p122
ag41
aS'Flowery'
p123
aS'Menthol'
p124
aS'Mint'
p125
ag43
aS'Pungent'
p126
ag57
asg34
Vbluntreviews
p127
sa(dp128
g23
VALPHA OG is AWESOME!!!\u000aNice smooth burn with light spicy flavour. \u000aSlow light buzz at first and then it hits quick with nice mellow high. \u000aHad a amazing sleep! &#128564; 
p129
sg25
(lp130
g79
ag28
ag30
ag62
ag68
aS'Dry Eyes'
p131
ag54
asg32
(lp132
g56
asg34
VKash0427
p133
sa(dp134
g23
VDefinitely one of the most bomb strains i&#39;ve ever had. Thought it may have been just me, but then i picked some up for some friends and they thought it was fire too!
p135
sg25
(lp136
g39
ag53
ag28
ag30
asg32
(lp137
sg34
VCLos92
p138
sa(dp139
g23
VChilling on a Friday with the homies.  Super relaxed and chill high.  Very dreamy feeling.  Recommended for a fun night.  
p140
sg25
(lp141
g79
ag29
ag30
ag62
asg32
(lp142
sg34
Vmountainmaneverest
p143
sa(dp144
g23
Vpotent
p145
sg25
(lp146
sg32
(lp147
sg34
Vbambinobb
p148
sa(dp149
g23
VGot a pretty good body high from this strain, made me feel pretty stoney, helped with sleep but didn\u2019t put me to sleep, slight munchies but controllable, was too relaxed to make it to the kitchen. If you\u2019re an indica heavy hybrid fan Alpha is probably for you.
p150
sg25
(lp151
sg32
(lp152
sg34
VChief-Wyattaye
p153
sa(dp154
g23
Vbest og ever. alpha medic is my go to spot. so lucky to be in SD where they are. best collective around in my humble opinion
p155
sg25
(lp156
g39
aS'Energetic'
p157
ag27
ag53
ag79
ag28
ag29
ag30
ag62
ag80
ag100
ag68
asg32
(lp158
S'Citrus'
p159
ag122
aS'Lime'
p160
ag125
ag43
ag126
aS'Skunk'
p161
ag57
asg34
Vbird5534
p162
sa(dp163
g23
VPhenomenal strain. Super dank, heavy on the indica side but not overwhelming. First time ever getting a hybrid as I&#39;m usually an indica kind of smoker but this is phenomenal. Would I get it again? Eh, I&#39;ll pass. But I&#39;m not dissapointed with it at all and am enjoying every last bowl.
p164
sg25
(lp165
sg32
(lp166
sg34
Vdelg932m
p167
sa(dp168
g23
VThis bud was delicious. Great high. Very happy and uplifted from this bud. It went will with Xbox and a beef,
p169
sg25
(lp170
g27
ag79
ag28
ag29
ag80
ag68
ag81
ag82
asg32
(lp171
sg34
VGoosefraba
p172
sa(dp173
g23
Vvery ery good high great nap after 
p174
sg25
(lp175
sg32
(lp176
sg34
Vstoner6556
p177
sa(dp178
g23
VAlpha OG is the best
p179
sg25
(lp180
sg32
(lp181
sg34
VRangoStahl
p182
sas.