(dp0
S'strain'
p1
S'black-magic-kush'
p2
sS'categorias'
p3
cnumpy.core.multiarray
_reconstruct
p4
(cnumpy
ndarray
p5
(I0
tp6
S'b'
p7
tp8
Rp9
(I1
(I1
tp10
cnumpy
dtype
p11
(S'O8'
p12
I0
I1
tp13
Rp14
(I3
S'|'
p15
NNNI-1
I-1
I63
tp16
bI00
(lp17
S'Indica'
p18
atp19
bsS'data_strain'
p20
(lp21
(dp22
S'reporte'
p23
VThis is my second favorite to vape as it will take you on a wild ride during the night and it is chocolate flavored by that time you are done you wake up feeling so refreshed! It&#39;s too bad nobody is popularizing this strain as I believe it grows in Washington State by High Altitude but then again it might be grown by others, but if you asked the plant it would tell you to please grow and make it popular!
p24
sS'efectos'
p25
(lp26
sS'sabores'
p27
(lp28
sS'usuario'
p29
VUltimate86Man
p30
sas.