(dp0
S'strain'
p1
S'blackberry-pie'
p2
sS'categorias'
p3
cnumpy.core.multiarray
_reconstruct
p4
(cnumpy
ndarray
p5
(I0
tp6
S'b'
p7
tp8
Rp9
(I1
(I1
tp10
cnumpy
dtype
p11
(S'O8'
p12
I0
I1
tp13
Rp14
(I3
S'|'
p15
NNNI-1
I-1
I63
tp16
bI00
(lp17
S'Hybrid'
p18
atp19
bsS'data_strain'
p20
(lp21
(dp22
S'reporte'
p23
Vactually found it at rose city oreganics.. first experience with this strain. I must&#39;ve got an indica pheno,  and wow. check it out if you can find it 
p24
sS'efectos'
p25
(lp26
S'Euphoric'
p27
aS'Relaxed'
p28
asS'sabores'
p29
(lp30
S'Rose'
p31
asS'usuario'
p32
VjackWater83
p33
sa(dp34
g23
VGreat for doing stuff. Not too strong but not weak, nice head high 
p35
sg25
(lp36
sg29
(lp37
sg32
VSpookyPuppy
p38
sa(dp39
g23
Vit looks like it&#39;s coated with cocaine it&#39;s so frosty\u000a\u000a
p40
sg25
(lp41
S'Creative'
p42
ag27
aS'Hungry'
p43
asg29
(lp44
sg32
Vnatalieloveboat
p45
sa(dp46
g23
Vcompletely obliterated my anxiety. this is the best.
p47
sg25
(lp48
g42
ag27
aS'Happy'
p49
ag43
ag28
asg29
(lp50
sg32
Vlargeprime
p51
sas.