(dp0
S'strain'
p1
S'black-cherry-pie'
p2
sS'categorias'
p3
cnumpy.core.multiarray
_reconstruct
p4
(cnumpy
ndarray
p5
(I0
tp6
S'b'
p7
tp8
Rp9
(I1
(I1
tp10
cnumpy
dtype
p11
(S'O8'
p12
I0
I1
tp13
Rp14
(I3
S'|'
p15
NNNI-1
I-1
I63
tp16
bI00
(lp17
S'Hybrid'
p18
atp19
bsS'data_strain'
p20
(lp21
(dp22
S'reporte'
p23
VPerfection! A perfect blend of flavor and color. I love it!
p24
sS'efectos'
p25
(lp26
S'Aroused'
p27
aS'Creative'
p28
aS'Happy'
p29
aS'Relaxed'
p30
aS'Uplifted'
p31
asS'sabores'
p32
(lp33
S'Berry'
p34
aS'Vanilla'
p35
asS'usuario'
p36
VPWhite831
p37
sa(dp38
g23
VPerfection, a perfect blend of flavors. A beautiful deep color. Amazing effects!
p39
sg25
(lp40
sg32
(lp41
sg36
VPWhite831
p42
sa(dp43
g23
VGreat flower, love the specific taste it has gets u nice and high definitely one of my top 10 strains at this point and that\u2019s saying a lot if it was just I bit stronger it would\u2019 be in my top 5 for sure... overall a great smoke everone will agree it\u2019s fire :)
p44
sg25
(lp45
g29
aS'Hungry'
p46
asg32
(lp47
sg36
Vartyb
p48
sa(dp49
g23
VSuperb 
p50
sg25
(lp51
S'Energetic'
p52
aS'Euphoric'
p53
aS'Focused'
p54
asg32
(lp55
g34
aS'Sweet'
p56
asg36
VJazzyjward420
p57
sa(dp58
g23
Vsuch a classy indica, beautifully dark purple buds and makes u chill tf out. tastes really good, is a serious paparazzi strain- i couldn\u2019t stop taking pics.  watch out, it can knock u out pretty quick if ur not careful 
p59
sg25
(lp60
sg32
(lp61
sg36
Vtmaness
p62
sa(dp63
g23
VThis strain is my favorite by far. It gives you a nice relaxed high while keeping you in a high spirited mood. My go to everytime, just hard to find :/
p64
sg25
(lp65
g52
ag53
aS'Giggly'
p66
ag29
ag30
ag31
asg32
(lp67
g34
ag56
asg36
VEhardin13
p68
sa(dp69
g23
VDis black cherry pie is da bomb diggity!\u2019 Crystals for days! I smoke it everyday and I wouldn\u2019t have it any other way! The nugs are big and dense and the high is smooth and relaxing. Love love love the black &#127826; &#129383; !
p70
sg25
(lp71
g28
ag53
ag29
ag30
ag31
asg32
(lp72
g34
aS'Blueberry'
p73
aS'Flowery'
p74
aS'Pungent'
p75
asg36
VMamaJ88
p76
sa(dp77
g23
VVery dense buds, helped alot with my Anxiety
p78
sg25
(lp79
sg32
(lp80
sg36
VASLA
p81
sas.