(dp0
S'strain'
p1
S'blaze'
p2
sS'categorias'
p3
cnumpy.core.multiarray
_reconstruct
p4
(cnumpy
ndarray
p5
(I0
tp6
S'b'
p7
tp8
Rp9
(I1
(I1
tp10
cnumpy
dtype
p11
(S'O8'
p12
I0
I1
tp13
Rp14
(I3
S'|'
p15
NNNI-1
I-1
I63
tp16
bI00
(lp17
S'Sativa'
p18
atp19
bsS'data_strain'
p20
(lp21
(dp22
S'reporte'
p23
VAmazing sativa!  Pain relief without the munchies.... great brain buzz. A definite go to for me!!
p24
sS'efectos'
p25
(lp26
S'Energetic'
p27
aS'Uplifted'
p28
asS'sabores'
p29
(lp30
sS'usuario'
p31
Vlagram
p32
sa(dp33
g23
VNice blueberry smell and flavour, with the distinctive light colour and pungent smoke of haze. This strain is great for conversation, playing guitar or even falling asleep. I would categorize it as a sativa dominant hybrid and rate it 3.5/5
p34
sg25
(lp35
sg29
(lp36
sg31
VVanIslandCannabis
p37
sa(dp38
g23
VReally smooth and tasty, loved it for what it used it for.
p39
sg25
(lp40
S'Aroused'
p41
aS'Euphoric'
p42
aS'Talkative'
p43
ag28
asg29
(lp44
S'Berry'
p45
aS'Sweet'
p46
asg31
Vsjkgagnon
p47
sas.