(dp0
S'strain'
p1
S'blue-kush'
p2
sS'categorias'
p3
cnumpy.core.multiarray
_reconstruct
p4
(cnumpy
ndarray
p5
(I0
tp6
S'b'
p7
tp8
Rp9
(I1
(I1
tp10
cnumpy
dtype
p11
(S'O8'
p12
I0
I1
tp13
Rp14
(I3
S'|'
p15
NNNI-1
I-1
I63
tp16
bI00
(lp17
S'Hybrid'
p18
atp19
bsS'data_strain'
p20
(lp21
(dp22
S'reporte'
p23
VThe smell, the taste, and the super smooth smoke make \u000aBlue Kush one of my favorites. This bud is a great social smoke and is perfect with a good dinner. Grab a glass of whatever sounds good and enjoy.\u000a                              \u000a                              Von.
p24
sS'efectos'
p25
(lp26
S'Euphoric'
p27
aS'Hungry'
p28
aS'Relaxed'
p29
aS'Uplifted'
p30
asS'sabores'
p31
(lp32
S'Berry'
p33
aS'Blueberry'
p34
aS'Lemon'
p35
aS'Pine'
p36
aS'Spicy/Herbal'
p37
asS'usuario'
p38
Vvon9496
p39
sa(dp40
g23
VDelayed high. But when the high hits it&#39;s very strong and for a very long period of time. \u000aHad a migraine , smoked it and it completely stopped. 
p41
sg25
(lp42
S'Giggly'
p43
aS'Happy'
p44
aS'Talkative'
p45
asg31
(lp46
sg38
Vstoner11599
p47
sa(dp48
g23
Vmy first home culture... i  wait to grow.
p49
sg25
(lp50
sg31
(lp51
sg38
VJackHerrerr
p52
sa(dp53
g23
VI&#39;ve been trying to write a review of Blue Kush for 3 days. Every time I try, I&#39;m high off blue Kush which renders me useless. I feel like a superhero. Does this even make sense? I&#39;m so high. 
p54
sg25
(lp55
sg31
(lp56
sg38
Vgangagal
p57
sa(dp58
g23
VI am a first trimmer to this particular strain, and the taste is the most unique. These darker pretty dense nugs pack a punch of relief. Gotta get more blue kush!!!!#
p59
sg25
(lp60
sg31
(lp61
sg38
VHiSience420
p62
sa(dp63
g23
VMy favorite taste in smoke with a mellow relaxing high.
p64
sg25
(lp65
g27
ag44
ag28
ag29
asg31
(lp66
sg38
Vgreatwhite5
p67
sa(dp68
g23
VGood stuff, can be used in late afternoon or night. Not a personal favorite because the high wasn&#39;t a good fit for me but definitely relaxing nonetheless. 
p69
sg25
(lp70
sg31
(lp71
sg38
Vpibo47
p72
sa(dp73
g23
VHappy high. One joint fixed a bad bipolar episode
p74
sg25
(lp75
S'Creative'
p76
ag27
ag44
ag29
ag45
ag30
asg31
(lp77
g33
aS'Sweet'
p78
asg38
VBrookeCAP
p79
sa(dp80
g23
VI am a first trimmer to this particular strain, and the taste is the most unique. These darker pretty dense nugs pack a punch of relief. Gotta get more blue kush!!!!#
p81
sg25
(lp82
sg31
(lp83
sg38
VHiSience420
p84
sa(dp85
g23
VLight and creative Head high,\u000aHappy euphoria,\u000aTastes earthy and woody,\u000aCreative juices flow,\u000aEasy to focus and not too drowzy,\u000aStress relieving.
p86
sg25
(lp87
sg31
(lp88
sg38
Vchrisbullet
p89
sa(dp90
g23
VAhhhhh. I&#39;m all about Blueberry Anything and this is in top 5 of different blueberry strains I&#39;ve tried. Love the ease &amp; relaxation this  induces!  
p91
sg25
(lp92
g27
ag44
ag29
aS'Tingly'
p93
asg31
(lp94
g34
asg38
VmigrADDspurs
p95
sa(dp96
g23
VPretty crazy strain to smoke, accidentally had it one night and later found out and that&#39;s why I realized why I wasn&#39;t scared at this party because it makes you so open and not to paranoid, also delay high takes about 10 minutes to start feeling effects so yeah this is quality stuff! 
p97
sg25
(lp98
g93
asg31
(lp99
g34
asg38
Vtooker31
p100
sa(dp101
g23
VNot a massive fan of sativa dominant hybrids, but with a smell and taste this good i have to dabble. Good daytime smoke for the skate park or walking the dog. Not the best at night if you have anxiety or sleeping issues ( you may need to get up at three in the morning to knock it out with a heavy indica ) but great for sitting around chatting or laughing about stupid shit. Great strain 
p102
sg25
(lp103
S'Aroused'
p104
aS'Anxious'
p105
aS'Dry Eyes'
p106
asg31
(lp107
g33
ag34
aS'Citrus'
p108
asg38
Vfatstue
p109
sa(dp110
g23
VA great sativa leaning hybrid. I smoked a joint of this on the beach and relaxed with my feet in the sand looking up at the sky. \u000aThe clouds came down to me and I felt as if I was floating in them. \u000a\u000aGrew with three other cultivars and this one was a little sensitive to hot temps. Also one of my phenotypes turned purple. 
p111
sg25
(lp112
g27
ag44
ag30
asg31
(lp113
g34
asg38
Vdogeatweedworld
p114
sa(dp115
g23
VBy far this is my favorite!  I am a newbie and I was pleasantly surprised with this!  I needed something calming yet uplifting and this is awesome. 
p116
sg25
(lp117
sg31
(lp118
sg38
Vkheebs
p119
sa(dp120
g23
VI have MS and like other Ms fighters I have looked for a good strain to slow my muscle spasms one of my favorite so far!!!!!!!!!&#128125;&#128125;&#128168;&#128168;&#128168;&#128168;
p121
sg25
(lp122
g104
ag29
ag30
asg31
(lp123
g33
aS'Earthy'
p124
ag78
asg38
VSTEELERNATION44
p125
sa(dp126
g23
VReally fucks you up, slight dizziness and paranoia for me but the feeling is always enjoyable. Hunger also goes through the roof. Overall it&#39;s god damn great.
p127
sg25
(lp128
sg31
(lp129
sg38
VLegenbeary
p130
sa(dp131
g23
VA+ worth every puff! Great hiiiii and tastes awesome and smooth.
p132
sg25
(lp133
sg31
(lp134
sg38
VBowlToker91
p135
sa(dp136
g23
VIm on this right now - it&#39;s a happy cerebral but calm high. Very thought provoking, uplifting, hungry high. Eating lots of food and enjoying it. Approaching even taboo topics or uncomfortable concerns and actually being able to look at them objectively without feeling down at all.   Very elated is how I feel, and very elevated consciousness. 
p137
sg25
(lp138
g27
ag44
ag28
ag29
ag45
ag30
asg31
(lp139
sg38
Vthehydra
p140
sa(dp141
g23
VThis is both mine and my fianc&#233;&#39;s favourite strain that we have tried so far. Gives a very nice energetic but relaxing high, without a nasty burnout. 100% recommend 
p142
sg25
(lp143
g104
ag76
aS'Energetic'
p144
ag27
aS'Focused'
p145
ag43
ag44
ag28
ag29
ag45
ag30
aS'Dry Mouth'
p146
asg31
(lp147
g33
ag34
ag108
ag124
asg38
Vemblem
p148
sa(dp149
g23
VI have  been growing this for a it 2 years and is one of my favs to grow. Created no anxiety and is great for energy but surprisingly really helps you sleep also. Perfect mixed taste of OG Kush and blueberry. Very dense nugs but aren&#39;t those type that are so dense that is so dense that it doesn&#39;t smoke  through evenly and your left with this dense little black bud with a lot of ash around it.
p150
sg25
(lp151
g44
ag28
ag29
aS'Sleepy'
p152
ag30
asg31
(lp153
sg38
Vmmg3990
p154
sa(dp155
g23
Vmuy cerebral, activa, nada somnolienta. Muy recomendable para compartir o salir.
p156
sg25
(lp157
g76
ag145
ag28
ag29
ag30
asg31
(lp158
g35
ag36
asg38
Vjotaaeneiene
p159
sa(dp160
g23
Vvery good taste when vaporized. easy to grow. very satisfied 
p161
sg25
(lp162
g76
ag27
ag145
ag44
ag29
ag106
ag146
asg31
(lp163
g34
aS'Lime'
p164
ag36
asg38
VPepino13
p165
sa(dp166
g23
VSolid buzz. Very smooth and fruity tasting. That&#39;s the Blueberry coming in. Highly recommend.
p167
sg25
(lp168
g104
ag76
ag144
ag27
ag145
ag43
ag44
ag29
ag30
asg31
(lp169
g33
ag34
ag78
asg38
VXAuda
p170
sa(dp171
g23
VBlue Kush nice hearty strain to indulge in winter months with cold weather great on body and put mind at ease  high cbd Choco lust candies I picked in Salem,Or  10mg on deck.Wreaked of blue berries and kush citrus tones.High put me in the mood for sleep helped with pain from wearing boots.Taste of blueberries and pine.Great for lonely nights you feel nice confident with cbd on deck gives you that swagger.Today End&#39;s Deception
p172
sg25
(lp173
g104
ag27
ag145
ag43
ag44
ag28
ag29
ag152
ag30
asg31
(lp174
g33
ag34
ag124
aS'Pear'
p175
ag36
aS'Pungent'
p176
aS'Rose'
p177
ag78
asg38
VTedIn3dee
p178
sa(dp179
g23
Vawesome taste and cool relaxation. 
p180
sg25
(lp181
g29
ag30
asg31
(lp182
sg38
VStonedsavage8392
p183
sa(dp184
g23
Vimmediately upon consumption this was so smooth to inhale and treated my taste buds yup i have to give this a b ig thumbs up up whoever in the mit had the b.k. on logo
p185
sg25
(lp186
sg31
(lp187
sg38
Vkil092286
p188
sa(dp189
g23
Vshits fire as hell
p190
sg25
(lp191
sg31
(lp192
sg38
Vsuckafree1
p193
sa(dp194
g23
VThis strain did me wonders. I was tasked with driving home at 2 a.m. and vaped some outta a Mighty, took some nice bong snaps, and then drank some of it infused in Kombucha, and WOWIE I was having a wonderful drive home exploring the passages of my brain and having wonderful conversations. Going to sleep also wasn&#39;t difficult. I would recommend if you are going to be in a social environment, a nonsocial environment, or if you are lookin to just think of cool shit.
p195
sg25
(lp196
g104
ag76
ag27
ag29
asg31
(lp197
sg38
Vzerogravitybong
p198
sa(dp199
g23
VDecent smoke, Very heady, but still very relaxing. Promotes hunger and has a very uplifting cerebral high.Definitly a creeper. Smell is complex consisting of blueberry muffins and lemon with a piney profile. Very dense buds and sturdy stems. Unfortunately my sample was mechanically trimmed but still decent color with light greens and orange hairs.
p200
sg25
(lp201
g76
ag27
ag28
ag29
ag30
asg31
(lp202
g34
ag35
ag36
asg38
VMxOxOxNxMxAxN
p203
sa(dp204
g23
VGreat for pain relief: cramps, back pain, nerve pain. It&#39;s a hybrid so you may feel buzzy rather than sleepy. Great for doing creative work (drawing, coloring et al). One of my new favorites.
p205
sg25
(lp206
sg31
(lp207
sg38
Vbluesychick
p208
sa(dp209
g23
Vgets you f*cked up. great high - but doesnt make you sleepy
p210
sg25
(lp211
sg31
(lp212
sg38
VHighGirl12
p213
sa(dp214
g23
VSmoked a big fat joint of this last summet and 15min later i was completely fucked up\u000aIt hits both your body and head, It brings you to another world
p215
sg25
(lp216
g44
ag29
ag30
asg31
(lp217
g34
asg38
VRaZe999
p218
sa(dp219
g23
VAmazing lemon fuel smell. Easy to grow. Strong effect.
p220
sg25
(lp221
g76
ag144
ag44
ag29
ag30
ag106
ag146
asg31
(lp222
S'Chemical'
p223
ag108
aS'Diesel'
p224
ag35
aS'Menthol'
p225
ag36
ag78
asg38
VAlkemistLost
p226
sa(dp227
g23
Vvery good taste when vaporized. easy to grow. very satisfied 
p228
sg25
(lp229
g76
ag27
ag145
ag44
ag29
ag106
ag146
asg31
(lp230
g34
ag164
ag36
asg38
VPepino13
p231
sa(dp232
g23
VPurchased as \u201cAvatar OG\u201d  but some research led me to Blue Kush. Very smooth flavor  and mellow and effects , used in  a Pax 3. Not my favorite but would definitely not pass up!!
p233
sg25
(lp234
sg31
(lp235
sg38
VSpaced_Ghost
p236
sa(dp237
g23
Vgreat for medical
p238
sg25
(lp239
sg31
(lp240
sg38
VstonedIyah
p241
sa(dp242
g23
VI like this strain. got it from high times (ehv). lovely bud with a full taste and sweet smell. smokes easy and hits me after a few tokes. Nice
p243
sg25
(lp244
g28
ag29
ag106
ag146
asg31
(lp245
S'Coffee'
p246
ag78
aS'Vanilla'
p247
asg38
Vtwizzz
p248
sa(dp249
g23
VI love this bud the first thing i noticed was how sweet it smelled it smelt like fresh blueberries its amazing. This is a must try strain its one of my top 5 honestly. I love the high this bud gives me i feel extremely happy and and wonderful its just hard to describe its just an amazing high. I actually just smoked a bowl of this bud and dabbed some shatter i made from this bud you gotta try this strain \u000a
p250
sg25
(lp251
g104
ag76
ag27
ag43
ag44
ag30
asg31
(lp252
g34
ag78
asg38
Vblake0417
p253
sa(dp254
g23
Vhad 2 phenos. 1 was super fire crystally blue. the other was leafy with little crystals. 
p255
sg25
(lp256
sg31
(lp257
sg38
VEugenesFinest
p258
sa(dp259
g23
VI have  been growing this for a it 2 years and is one of my favs to grow. Created no anxiety and is great for energy but surprisingly really helps you sleep also. Perfect mixed taste of OG Kush and blueberry. Very dense nugs but aren&#39;t those type that are so dense that is so dense that it doesn&#39;t smoke  through evenly and your left with this dense little black bud with a lot of ash around it.
p260
sg25
(lp261
g44
ag28
ag29
ag152
ag30
asg31
(lp262
sg38
Vmmg3990
p263
sa(dp264
g23
VI love the sweet, blueberry flavor  of this.  Very smooth as well.  My heart starts racing ant and my mind gets alert.  Feel uplifted and happy, on top of the Sativa effects I feel, I get a stoniness  like an OG.  Overall, this is a lot like Blue Dream. Maybe not as heady, but similarly mixed.
p265
sg25
(lp266
g27
ag145
ag44
ag29
asg31
(lp267
g34
ag124
ag78
asg38
VMoss1310
p268
sa(dp269
g23
VOne of my favourites. Also the best yielding strain I have ever grown.
p270
sg25
(lp271
sg31
(lp272
sg38
Vcheesecake2729
p273
sa(dp274
g23
VOutdoor Growing 2016 Swiss Mountains: \u000aSmall plant but Very strong taste and resinous, light blueberry taste\u000aPerfect to relax after dinner and fall asleep.
p275
sg25
(lp276
g29
ag152
ag106
asg31
(lp277
g33
ag36
aS'Woody'
p278
asg38
VCannaSwiss
p279
sa(dp280
g23
VAn ok strain but not strong enough for my PTSD.
p281
sg25
(lp282
sg31
(lp283
sg38
VFree2beme
p284
sa(dp285
g23
VSolid buzz. Very smooth and fruity tasting. That&#39;s the Blueberry coming in. Highly recommend.
p286
sg25
(lp287
g104
ag76
ag144
ag27
ag145
ag43
ag44
ag29
ag30
asg31
(lp288
g33
ag34
ag78
asg38
VXAuda
p289
sa(dp290
g23
VThis is both mine and my fianc&#233;&#39;s favourite strain that we have tried so far. Gives a very nice energetic but relaxing high, without a nasty burnout. 100% recommend 
p291
sg25
(lp292
g104
ag76
ag144
ag27
ag145
ag43
ag44
ag28
ag29
ag45
ag30
ag146
asg31
(lp293
g33
ag34
ag108
ag124
asg38
Vemblem
p294
sa(dp295
g23
VIm on this right now - it&#39;s a happy cerebral but calm high. Very thought provoking, uplifting, hungry high. Eating lots of food and enjoying it. Approaching even taboo topics or uncomfortable concerns and actually being able to look at them objectively without feeling down at all.   Very elated is how I feel, and very elevated consciousness. 
p296
sg25
(lp297
g27
ag44
ag28
ag29
ag45
ag30
asg31
(lp298
sg38
Vthehydra
p299
sa(dp300
g23
VA+ worth every puff! Great hiiiii and tastes awesome and smooth.
p301
sg25
(lp302
sg31
(lp303
sg38
VBowlToker91
p304
sa(dp305
g23
Vmuy cerebral, activa, nada somnolienta. Muy recomendable para compartir o salir.
p306
sg25
(lp307
g76
ag145
ag28
ag29
ag30
asg31
(lp308
g35
ag36
asg38
Vjotaaeneiene
p309
sa(dp310
g23
Vit get you high, but tastes like reggie. i wouldnt buy it again but its only my opinion.
p311
sg25
(lp312
g27
asg31
(lp313
sg38
Vvybewitme209
p314
sa(dp315
g23
VI&#39;m usually not a fan of sativa dominant because I use marijuana for pain but this is a very good strain nevertheless. It relaxes you still and gives you a clear head high. Also like the flavor although it&#39;s not too strong and to me, not like blueberry. 
p316
sg25
(lp317
g76
ag144
ag27
ag145
ag43
ag44
ag29
ag93
ag30
ag146
asg31
(lp318
sg38
Vsabriiiiiiin
p319
sa(dp320
g23
VAsome Strain real mellow, great for that cali weather 
p321
sg25
(lp322
sg31
(lp323
sg38
VOG99
p324
sa(dp325
g23
Vbooya!!!
p326
sg25
(lp327
sg31
(lp328
sg38
Vroachman13
p329
sa(dp330
g23
Vdoes anybody grow this strain? i had a Dinafem auto one and want some feed tips :) good smokes
p331
sg25
(lp332
g76
ag144
ag44
asg31
(lp333
g34
ag176
ag78
asg38
Vautogrwr
p334
sa(dp335
g23
Vwas a nice hybrid  where the indica side shines  through in relaxing body high and mellow head high but may not  be the most potent for seasoned smokers or looking for heavy indica effects\u000a\u000a
p336
sg25
(lp337
sg31
(lp338
sg38
VValleyofGreen
p339
sa(dp340
g23
Vthis is a lighter strain, definitely a hybrid. waked and baked and continued recaps throughout the day..a little clumsy at first but laughable..enjoyable focus. even good for reading and meditation
p341
sg25
(lp342
g145
ag43
ag44
ag29
asg31
(lp343
sg38
Vkushin8
p344
sa(dp345
g23
VGood stuff, can be used in late afternoon or night. Not a personal favorite because the high wasn&#39;t a good fit for me but definitely relaxing nonetheless. 
p346
sg25
(lp347
sg31
(lp348
sg38
Vpibo47
p349
sa(dp350
g23
VReally strong but after about an hour it puts you straight to sleep. Smells and tastes like berries. Perfect for a toke before bed 
p351
sg25
(lp352
g43
ag44
ag28
ag29
ag152
asg31
(lp353
g33
ag34
ag78
asg38
VManjaLovesGanja
p354
sa(dp355
g23
Vgreat strain with the best aroma out there but its nothing special. it will get you high and keep you high but not very good for anything else.
p356
sg25
(lp357
sg31
(lp358
sg38
Vddtkid101
p359
sa(dp360
g23
VI had a horrible reaction to this weed.  My body was over stimulated, over tingling and stabbing pains in my limbs, joints and upper arms and legs.  I have a bad case of fibromyalgia so I may be singular in my experience.       It could have pesticides in it.
p361
sg25
(lp362
g93
ag105
ag146
asg31
(lp363
g33
ag108
ag278
asg38
Vdashiel13
p364
sa(dp365
g23
VObtained medically labeled as an Indica. This variant is mellow in all medical and non-medical effects. Almost no &quot;high&quot; feeling and a 3/10 for pain relief. Do not recommend.
p366
sg25
(lp367
sg31
(lp368
g124
asg38
VScienceforAll
p369
sas.