(dp0
S'strain'
p1
S'blue-heron'
p2
sS'categorias'
p3
cnumpy.core.multiarray
_reconstruct
p4
(cnumpy
ndarray
p5
(I0
tp6
S'b'
p7
tp8
Rp9
(I1
(I1
tp10
cnumpy
dtype
p11
(S'O8'
p12
I0
I1
tp13
Rp14
(I3
S'|'
p15
NNNI-1
I-1
I63
tp16
bI00
(lp17
S'Hybrid'
p18
atp19
bsS'data_strain'
p20
(lp21
(dp22
S'reporte'
p23
VWow love this Strain!! Can be smoked for pain nighttime sleep aid and for just catching a movie with a friend..If you get a chance to taste it do so...
p24
sS'efectos'
p25
(lp26
S'Relaxed'
p27
asS'sabores'
p28
(lp29
S'Citrus'
p30
aS'Earthy'
p31
asS'usuario'
p32
VPuddinOne
p33
sa(dp34
g23
Vthis strain has big hard sticky buds with lots of resin 
p35
sg25
(lp36
S'Euphoric'
p37
aS'Happy'
p38
aS'Hungry'
p39
ag27
aS'Sleepy'
p40
aS'Dry Eyes'
p41
aS'Dry Mouth'
p42
aS'Headache'
p43
asg28
(lp44
S'Berry'
p45
aS'Blueberry'
p46
ag30
aS'Sweet'
p47
aS'Woody'
p48
asg32
Vredbeardedbuds
p49
sa(dp50
g23
Vmy official favorite strain! too keep it short, very relaxing high with a great euphoric head buzz. not increadibly potent but strong. I use this strain for any application. though, it doesn&#39;t make me very sleepy for at least a couple of hours.\u000a\u000abest use - video gaming
p51
sg25
(lp52
g37
ag38
ag27
aS'Uplifted'
p53
asg28
(lp54
sg32
VRobochrist
p55
sas.