(dp0
S'strain'
p1
S'blue-monster'
p2
sS'categorias'
p3
cnumpy.core.multiarray
_reconstruct
p4
(cnumpy
ndarray
p5
(I0
tp6
S'b'
p7
tp8
Rp9
(I1
(I1
tp10
cnumpy
dtype
p11
(S'O8'
p12
I0
I1
tp13
Rp14
(I3
S'|'
p15
NNNI-1
I-1
I63
tp16
bI00
(lp17
S'Indica'
p18
atp19
bsS'data_strain'
p20
(lp21
(dp22
S'reporte'
p23
Vnew top choice strain for me ..potent tasty , a little rough on the smoke but worth it...amazing relief..buff said
p24
sS'efectos'
p25
(lp26
S'Creative'
p27
aS'Euphoric'
p28
aS'Giggly'
p29
aS'Happy'
p30
aS'Hungry'
p31
aS'Relaxed'
p32
aS'Sleepy'
p33
asS'sabores'
p34
(lp35
sS'usuario'
p36
VROADSTAR77
p37
sa(dp38
g23
V\u000a
p39
sg25
(lp40
sg34
(lp41
sg36
VOG10Izy
p42
sas.