(dp0
S'strain'
p1
S'bubble-cheese'
p2
sS'categorias'
p3
cnumpy.core.multiarray
_reconstruct
p4
(cnumpy
ndarray
p5
(I0
tp6
S'b'
p7
tp8
Rp9
(I1
(I1
tp10
cnumpy
dtype
p11
(S'O8'
p12
I0
I1
tp13
Rp14
(I3
S'|'
p15
NNNI-1
I-1
I63
tp16
bI00
(lp17
S'Indica'
p18
atp19
bsS'data_strain'
p20
(lp21
(dp22
S'reporte'
p23
VNot the strongest indeed, I can function easily with this strain. Makes me laugh a bit :)
p24
sS'efectos'
p25
(lp26
sS'sabores'
p27
(lp28
S'Cheese'
p29
asS'usuario'
p30
VSyncoholic
p31
sa(dp32
g23
VNot strong at all, but still gives you a nice head buzz.
p33
sg25
(lp34
sg27
(lp35
g29
asg30
Vsebtodd
p36
sa(dp37
g23
VSmells like cheese and pinewood, same as taste, but there&#39;s an added hint of something there; it&#39;s fresh, lavender and mint, flowers. Took me 45 minutes to roll another one. Slow Mo Time. Light flashy, orby CEVs. Bad focus, but enthousiastic. Would recommend for chillout sesh with stoner friends.
p38
sg25
(lp39
S'Aroused'
p40
aS'Giggly'
p41
aS'Hungry'
p42
aS'Relaxed'
p43
aS'Talkative'
p44
aS'Tingly'
p45
aS'Dry Mouth'
p46
asg27
(lp47
S'Blue Cheese'
p48
ag29
aS'Flowery'
p49
aS'Lavender'
p50
aS'Mint'
p51
aS'Pine'
p52
asg30
VSafetyLast
p53
sa(dp54
g23
VA great mix of several potent strains. The effects are relaxing and sedative.
p55
sg25
(lp56
S'Happy'
p57
ag42
ag43
aS'Sleepy'
p58
aS'Uplifted'
p59
asg27
(lp60
g29
aS'Earthy'
p61
aS'Pungent'
p62
aS'Spicy/Herbal'
p63
aS'Sweet'
p64
aS'Woody'
p65
asg30
VFuzzynuggetz
p66
sa(dp67
g23
Valmost a fruity cheese a creeper and very strong satriva like the description says and good for hunger
p68
sg25
(lp69
g42
ag43
ag58
aS'Dizzy'
p70
aS'Dry Eyes'
p71
asg27
(lp72
g48
ag29
aS'Citrus'
p73
ag62
asg30
VBradBongZ
p74
sas.