(dp0
S'strain'
p1
S'bubblegun'
p2
sS'categorias'
p3
cnumpy.core.multiarray
_reconstruct
p4
(cnumpy
ndarray
p5
(I0
tp6
S'b'
p7
tp8
Rp9
(I1
(I1
tp10
cnumpy
dtype
p11
(S'O8'
p12
I0
I1
tp13
Rp14
(I3
S'|'
p15
NNNI-1
I-1
I63
tp16
bI00
(lp17
S'Hybrid'
p18
atp19
bsS'data_strain'
p20
(lp21
(dp22
S'reporte'
p23
VHonestly, this isn&#39;t that bad. I wanted to give it two stars, but I did feel pretty swell after smoking. I&#39;ve had other highs that were wayyy better, but I&#39;m not complaining. As a buyer I wouldn&#39;t seek out this strain, but if offered I wouldn&#39;t turn it down.
p24
sS'efectos'
p25
(lp26
S'Hungry'
p27
aS'Relaxed'
p28
asS'sabores'
p29
(lp30
sS'usuario'
p31
VChief1Xa
p32
sa(dp33
g23
VA Great strong smoke for afternoon and night time! Sleepy weed
p34
sg25
(lp35
S'Euphoric'
p36
aS'Happy'
p37
ag28
aS'Sleepy'
p38
asg29
(lp39
S'Mint'
p40
aS'Sweet'
p41
aS'Tree'
p42
aS'Fruit'
p43
aS'Tropical'
p44
asg31
Vriver7
p45
sa(dp46
g23
VBubblegun is light green and full of crystals, the smell is outstanding, one of the best smelling hybrids I have come accross. Consistently uplifting high that is perfect for any occasion, night or day. Potent and highly recommended.
p47
sg25
(lp48
S'Tingly'
p49
aS'Uplifted'
p50
asg29
(lp51
S'Blueberry'
p52
aS'Vanilla'
p53
asg31
VVanIslandCannabis
p54
sa(dp55
g23
VThis was amazing!! So super smooth in a bowl and like nothing in my bongs!! Its a good daytime smoke helps you get creative and work! Makes you super happy too! Smells amazing like friuty/bubble gum and tastes really nice almost sweet!! 
p56
sg25
(lp57
sg29
(lp58
sg31
Vkushqueen0420
p59
sa(dp60
g23
Vsoft
p61
sg25
(lp62
sg29
(lp63
sg31
VProKush
p64
sa(dp65
g23
Vit&#39;s a good weed but i thought it was sweeter
p66
sg25
(lp67
sg29
(lp68
sg31
Vneonsub420
p69
sa(dp70
g23
Vrustig, niet echt stoned, eten smaakt alleen beter
p71
sg25
(lp72
sg29
(lp73
sg31
VFloor22666
p74
sa(dp75
g23
VI think not for insomnia, but rather for chill in your own background $$$ #bubblegun Thize strain is sun of a gun with pretty tropical flavor #trench\u000a
p76
sg25
(lp77
sg29
(lp78
sg31
VWiMa
p79
sa(dp80
g23
Vtaste like a bubble bath. pretty cool. sativa dominate.
p81
sg25
(lp82
g36
ag37
ag50
asg29
(lp83
g40
aS'Pepper'
p84
asg31
Vflo3xclusive
p85
sa(dp86
g23
VMuy buen sabor, pega rapido y dura por un buen rato, bajando paulatinamente\u000a
p87
sg25
(lp88
S'Focused'
p89
ag37
ag27
ag28
aS'Dry Eyes'
p90
aS'Dry Mouth'
p91
asg29
(lp92
S'Honey'
p93
aS'Skunk'
p94
ag44
asg31
Vfruizm
p95
sa(dp96
g23
Vtaste like a bubble bath. pretty cool. sativa dominate.
p97
sg25
(lp98
sg29
(lp99
sg31
Vflo3xclusive
p100
sa(dp101
g23
VAmazing strain. Clumps together when ground up.
p102
sg25
(lp103
g89
ag27
ag38
asg29
(lp104
sg31
Vdanizorz
p105
sa(dp106
g23
VOne of my favs! Edpecially if ur looking for an any daytime smoke! 
p107
sg25
(lp108
S'Energetic'
p109
ag36
ag89
ag37
ag50
ag90
ag91
asg29
(lp110
sg31
Vdinkimarie07
p111
sa(dp112
g23
VA happy, uplifting high.
p113
sg25
(lp114
g36
ag89
aS'Giggly'
p115
ag37
ag50
asg29
(lp116
sg31
VAnonymous
p117
sa(dp118
g23
VThe effect is very euphoric and a pleasant\u000arelaxing. The perfect strain for having a good\u000aconversation with your friends.\u000a\u000aI would recommend to grow this strain in\u000athe SOG style.
p119
sg25
(lp120
g36
ag115
ag37
ag28
aS'Talkative'
p121
ag50
asg29
(lp122
S'Strawberry'
p123
ag41
asg31
Vmissesnice
p124
sa(dp125
g23
VLove it
p126
sg25
(lp127
g50
ag91
aS'Paranoid'
p128
asg29
(lp129
sg31
VKotzy
p130
sa(dp131
g23
Vnice 7 chilled
p132
sg25
(lp133
S'Creative'
p134
ag37
asg29
(lp135
sg31
Vddindumpster
p136
sas.