(dp0
S'strain'
p1
S'caramelo'
p2
sS'categorias'
p3
cnumpy.core.multiarray
_reconstruct
p4
(cnumpy
ndarray
p5
(I0
tp6
S'b'
p7
tp8
Rp9
(I1
(I1
tp10
cnumpy
dtype
p11
(S'O8'
p12
I0
I1
tp13
Rp14
(I3
S'|'
p15
NNNI-1
I-1
I63
tp16
bI00
(lp17
S'Sativa'
p18
atp19
bsS'data_strain'
p20
(lp21
(dp22
S'reporte'
p23
VAnother sexy girl grows well and smells great loads buds buds are dense and very red shimmering with thc help with my sleeping be sure to try this strain gets  4 from me Blessings Yodaoldschool &#128591;&#128170;
p24
sS'efectos'
p25
(lp26
S'Relaxed'
p27
aS'Sleepy'
p28
asS'sabores'
p29
(lp30
S'Lavender'
p31
aS'Tropical'
p32
aS'Woody'
p33
asS'usuario'
p34
Vyodaoldschool
p35
sa(dp36
g23
VGets you too hungry
p37
sg25
(lp38
sg29
(lp39
sg34
Vanemotionalrobot
p40
sa(dp41
g23
VGreat day time strain to get things done! Love the energy and the overall euphoria! I would recommend this to anyone really for any type of activity! &#129304;&#127997;
p42
sg25
(lp43
S'Energetic'
p44
aS'Euphoric'
p45
aS'Focused'
p46
aS'Happy'
p47
aS'Uplifted'
p48
asg29
(lp49
g31
aS'Sweet'
p50
ag33
asg34
Vi2Saucy
p51
sa(dp52
g23
Vvery nice strain. strong sativa elements. really smooth smoke with a very uplifting high. would recommend this for going out on walks 
p53
sg25
(lp54
sg29
(lp55
sg34
Vjennydeath
p56
sa(dp57
g23
VSmoked this in Amsterdam with tobacco. It&#39;s done nothing to me. I am a bit disappointed:(
p58
sg25
(lp59
S'Hungry'
p60
asg29
(lp61
S'Flowery'
p62
asg34
Vilya2053
p63
sas.