(dp0
S'strain'
p1
S'cheeseburger'
p2
sS'categorias'
p3
cnumpy.core.multiarray
_reconstruct
p4
(cnumpy
ndarray
p5
(I0
tp6
S'b'
p7
tp8
Rp9
(I1
(I1
tp10
cnumpy
dtype
p11
(S'O8'
p12
I0
I1
tp13
Rp14
(I3
S'|'
p15
NNNI-1
I-1
I63
tp16
bI00
(lp17
S'Hybrid'
p18
atp19
bsS'data_strain'
p20
(lp21
(dp22
S'reporte'
p23
VMMmmm Cheeseburger  ...   This strain is for that day early in the morning when you don&quot;t need to get spun off.It&#39;s effects creep up on you giving you a nice warm glow!               And yes     I can taste Cheeseburger&#39;s !!!
p24
sS'efectos'
p25
(lp26
sS'sabores'
p27
(lp28
S'Cheese'
p29
asS'usuario'
p30
Vrussell887
p31
sa(dp32
g23
Vdank great taste 
p33
sg25
(lp34
sg27
(lp35
g29
asg30
VBrazeLarilla
p36
sas.