(dp0
S'strain'
p1
S'cotton-purple-chem'
p2
sS'categorias'
p3
cnumpy.core.multiarray
_reconstruct
p4
(cnumpy
ndarray
p5
(I0
tp6
S'b'
p7
tp8
Rp9
(I1
(I1
tp10
cnumpy
dtype
p11
(S'O8'
p12
I0
I1
tp13
Rp14
(I3
S'|'
p15
NNNI-1
I-1
I63
tp16
bI00
(lp17
S'Hybrid'
p18
atp19
bsS'data_strain'
p20
(lp21
(dp22
S'reporte'
p23
VToday is the first day I&#39;ve gotten some purple chem. Will update after I remember to
p24
sS'efectos'
p25
(lp26
sS'sabores'
p27
(lp28
sS'usuario'
p29
Vfizzleorfaze
p30
sa(dp31
g23
VI smoked this one of my first times smoking alone and it was one of the best strains I\u2019ve ever smoked. This strain got me so high that I planned on getting up and going inside, sat back down and stayed there for an hour. 
p32
sg25
(lp33
S'Euphoric'
p34
aS'Relaxed'
p35
aS'Tingly'
p36
aS'Dry Mouth'
p37
asg27
(lp38
sg29
VDrippingAnus
p39
sa(dp40
g23
VVery relaxing, and it gives a peace of mind state for me. Absolutely enjoying it &#128524;&#128406;&#127995;
p41
sg25
(lp42
sg27
(lp43
sg29
Vkatishazolla
p44
sas.