(dp0
S'strain'
p1
S'crazy-miss-hyde'
p2
sS'categorias'
p3
cnumpy.core.multiarray
_reconstruct
p4
(cnumpy
ndarray
p5
(I0
tp6
S'b'
p7
tp8
Rp9
(I1
(I1
tp10
cnumpy
dtype
p11
(S'O8'
p12
I0
I1
tp13
Rp14
(I3
S'|'
p15
NNNI-1
I-1
I63
tp16
bI00
(lp17
S'Hybrid'
p18
atp19
bsS'data_strain'
p20
(lp21
(dp22
S'reporte'
p23
VThis is outstanding. My God, it&#39;s really good. It&#39;s a powerful high, intense, but so wonderful. It bound up my grinder so covered in bounty. \u000aIt is seriously frosted. It&#39;s beautiful. \u000aI want to see it under high magnification, high. \u000aTruly beautiful bud. I&#39;m telling ya,, it&#39;s awesome.
p24
sS'efectos'
p25
(lp26
sS'sabores'
p27
(lp28
sS'usuario'
p29
Vwolly4321
p30
sa(dp31
g23
VWowzers!!I think i just blew in my trouserz...pan down, commando style, drop trow, pliant boob...36C all natural Perfection..if weird science made a female...this is what it would look like in 2016....wowzers 
p32
sg25
(lp33
S'Creative'
p34
aS'Euphoric'
p35
aS'Focused'
p36
aS'Happy'
p37
aS'Relaxed'
p38
aS'Talkative'
p39
aS'Uplifted'
p40
asg27
(lp41
sg29
VGreenGreenWA
p42
sa(dp43
g23
VFantastic! Smells like candy, smokes smooth and clean. The high is energetic at first and really sets in the body high. Very anxious in concentrate/bho form of ya get too crazy!
p44
sg25
(lp45
g34
aS'Energetic'
p46
ag40
aS'Anxious'
p47
aS'Dry Mouth'
p48
asg27
(lp49
sg29
Vtkcowlishaw
p50
sa(dp51
g23
VThis is absolutely wonderful flower. Covered in Crystals, it&#39;s amazing. Probably one of the best I&#39;ve ever had.
p52
sg25
(lp53
g34
ag46
ag35
ag37
ag39
ag40
asg27
(lp54
sg29
Vwolly4321
p55
sa(dp56
g23
VGreat strain to grow. Amazing smell and the high is a great head high. I can&#39;t express how much I loved the smell of this while it was growing
p57
sg25
(lp58
sg27
(lp59
sg29
VShizZank
p60
sa(dp61
g23
VI really like the taste and smell. Def one of my favorites. Very good euphoric high tht last.
p62
sg25
(lp63
sg27
(lp64
sg29
VPetty42091
p65
sa(dp66
g23
VMaybe the best I&#39;ve had in 30 years. Glad I got a bunch.
p67
sg25
(lp68
sg27
(lp69
sg29
Vjazzcds
p70
sa(dp71
g23
VI&#39;ve Smoked over 20 hybrids , sativa and indicas  over 2 weeks and this by far is the best tasting I&#39;ve smoked. The body high is awesome feels like the first time I blew a blunt I&#39;m 03. haha. 
p72
sg25
(lp73
g34
ag46
aS'Giggly'
p74
ag37
ag38
asg27
(lp75
S'Berry'
p76
aS'Earthy'
p77
aS'Sweet'
p78
aS'Vanilla'
p79
asg29
Vhillmob86
p80
sa(dp81
g23
Vvery tingly
p82
sg25
(lp83
sg27
(lp84
sg29
Vthattannaboy
p85
sa(dp86
g23
VBeautiful smell to it, mellow euphoric high. Delicious. \u000a
p87
sg25
(lp88
g35
ag38
aS'Tingly'
p89
asg27
(lp90
S'Citrus'
p91
ag77
asg29
Vdaveisnot
p92
sa(dp93
g23
VVery strong in smell and taste. Top notch strand. Surprised that it&#39;s not more know. Hits you very hard. Definitely a good strain for high tolerance smokers. Would probably make cannibutter that&#39;s out of this world. The smell though. Oh that smell. :)
p94
sg25
(lp95
g35
ag36
ag74
ag37
aS'Hungry'
p96
ag38
ag40
asg27
(lp97
g77
aS'Pungent'
p98
asg29
VBeZerkaveli
p99
sa(dp100
g23
VWould like to try and find it to try it
p101
sg25
(lp102
sg27
(lp103
sg29
VShadow121799
p104
sa(dp105
g23
VIt Is the new strain for 2015!!!
p106
sg25
(lp107
g74
ag37
asg27
(lp108
sg29
VmobilemedsLLC
p109
sas.