(dp0
S'strain'
p1
S'critical-plus-20'
p2
sS'categorias'
p3
cnumpy.core.multiarray
_reconstruct
p4
(cnumpy
ndarray
p5
(I0
tp6
S'b'
p7
tp8
Rp9
(I1
(I1
tp10
cnumpy
dtype
p11
(S'O8'
p12
I0
I1
tp13
Rp14
(I3
S'|'
p15
NNNI-1
I-1
I63
tp16
bI00
(lp17
S'Indica'
p18
atp19
bsS'data_strain'
p20
(lp21
(dp22
S'reporte'
p23
VBest strain ever!
p24
sS'efectos'
p25
(lp26
sS'sabores'
p27
(lp28
sS'usuario'
p29
Vpaperina
p30
sa(dp31
g23
VI prefer Indica dominant hybrids and pure Indica strains but this one doesn&#39;t do it for me AT ALL because it makes me very anxious (the anxiety typically lasts about 30-40 min and subsides).  I&#39;ve consumed this strain on three occasions with the same negative effect so I&#39;ve decided to drop it from the rotation.  IMHO it is very strong strain even though the THC content tested at 18.9% which isn&#39;t super high.  Proves yet again that strength involves much, much more than simply the % THC.
p32
sg25
(lp33
S'Anxious'
p34
aS'Paranoid'
p35
asg27
(lp36
sg29
VTheMadStrater
p37
sas.