(dp0
S'strain'
p1
S'dank-sinatra'
p2
sS'categorias'
p3
cnumpy.core.multiarray
_reconstruct
p4
(cnumpy
ndarray
p5
(I0
tp6
S'b'
p7
tp8
Rp9
(I1
(I1
tp10
cnumpy
dtype
p11
(S'O8'
p12
I0
I1
tp13
Rp14
(I3
S'|'
p15
NNNI-1
I-1
I63
tp16
bI00
(lp17
S'Hybrid'
p18
atp19
bsS'data_strain'
p20
(lp21
(dp22
S'reporte'
p23
VNice smooth and strong.
p24
sS'efectos'
p25
(lp26
S'Happy'
p27
aS'Relaxed'
p28
asS'sabores'
p29
(lp30
sS'usuario'
p31
VWeatherednBoston
p32
sa(dp33
g23
VSlight headache but really great and uplifting high 
p34
sg25
(lp35
g27
aS'Uplifted'
p36
aS'Headache'
p37
asg29
(lp38
sg31
Vsmallface
p39
sas.