(dp0
S'strain'
p1
S'day-tripper'
p2
sS'categorias'
p3
cnumpy.core.multiarray
_reconstruct
p4
(cnumpy
ndarray
p5
(I0
tp6
S'b'
p7
tp8
Rp9
(I1
(I1
tp10
cnumpy
dtype
p11
(S'O8'
p12
I0
I1
tp13
Rp14
(I3
S'|'
p15
NNNI-1
I-1
I63
tp16
bI00
(lp17
S'Hybrid'
p18
atp19
bsS'data_strain'
p20
(lp21
(dp22
S'reporte'
p23
Vmeh
p24
sS'efectos'
p25
(lp26
sS'sabores'
p27
(lp28
sS'usuario'
p29
Vthe_sampler
p30
sa(dp31
g23
VNot really dizzy feeling, more of a distant floaty feeling! Loved it 
p32
sg25
(lp33
S'Euphoric'
p34
aS'Focused'
p35
aS'Happy'
p36
aS'Relaxed'
p37
aS'Uplifted'
p38
asg27
(lp39
S'Citrus'
p40
aS'Earthy'
p41
asg29
VNicholeinTexas
p42
sa(dp43
g23
VIt smelled almost cheesy to me- at first.  I definitely tasted the fruity flavor on the inhale, but the exhale is overwhelmingly gasoline.  Whew.\u000a\u000aHigh is super mellow, tingly.  Definitely a milder stone.  Good for a beginner/lightweight smoker.
p44
sg25
(lp45
g34
ag35
ag37
aS'Tingly'
p46
asg27
(lp47
S'Blueberry'
p48
aS'Cheese'
p49
aS'Diesel'
p50
asg29
VItsDefiNatalie
p51
sa(dp52
g23
VTaste like cotton candy &#128523;
p53
sg25
(lp54
sg27
(lp55
sg29
VAnonymouschick
p56
sa(dp57
g23
VGot some of this stuff from the dispensary down the street -- it has an fine smell, a nice head high,and about 0.4g of the flower, vaped, gave me some light visuals and a steady buzz. The taste is a bit better than bland, and it&#39;s a 22% Sativa at market rate, making it something I&#39;ll definitely consider in the future.
p58
sg25
(lp59
S'Aroused'
p60
ag34
ag37
ag46
aS'Dizzy'
p61
aS'Dry Mouth'
p62
asg27
(lp63
S'Butter'
p64
aS'Lemon'
p65
aS'Spicy/Herbal'
p66
aS'Sweet'
p67
asg29
V0neet
p68
sa(dp69
g23
VSecond go around with this Gem. Usually roll .35-.45g J and I&#39;m good for a while. Super buttery scent caught me off guard.
p70
sg25
(lp71
sg27
(lp72
sg29
VMaxLoew78
p73
sa(dp74
g23
VVery nice fruity, tropical, clean flavor. The high was very indica-dominant for me. I would give this strain 5 stars expect for the crazy bout of paranoia I got. Would try again though!
p75
sg25
(lp76
g34
ag36
aS'Hungry'
p77
ag37
aS'Anxious'
p78
aS'Paranoid'
p79
asg27
(lp80
S'Berry'
p81
ag40
ag67
aS'Tropical'
p82
asg29
Vfruity.pebbles.babe
p83
sas.