(dp0
S'strain'
p1
S'deep-cheese'
p2
sS'categorias'
p3
cnumpy.core.multiarray
_reconstruct
p4
(cnumpy
ndarray
p5
(I0
tp6
S'b'
p7
tp8
Rp9
(I1
(I1
tp10
cnumpy
dtype
p11
(S'O8'
p12
I0
I1
tp13
Rp14
(I3
S'|'
p15
NNNI-1
I-1
I63
tp16
bI00
(lp17
S'Hybrid'
p18
atp19
bsS'data_strain'
p20
(lp21
(dp22
S'reporte'
p23
VVery introspective, relaxing strain. Excellent for calming with a hint of anxiety if you ingest too much alone. Enables you to think, deeply, figure out your life type of stuff. Very strong pungent cheese smell which has Skunky undertones. Disapproving neighbors will not be happy when you bring this one home, but you can outthink them now and convince them all is well with the world (It is). Pretty sure Yoda smokes this strain before filming.\u000a\u000a&quot;This cheese runs deep, so deep, so deep she&#39;ll put yo ass to sleep!&quot;. - Bal
p24
sS'efectos'
p25
(lp26
S'Creative'
p27
aS'Hungry'
p28
aS'Relaxed'
p29
aS'Talkative'
p30
aS'Uplifted'
p31
aS'Anxious'
p32
asS'sabores'
p33
(lp34
S'Cheese'
p35
aS'Pungent'
p36
aS'Skunk'
p37
asS'usuario'
p38
VTheBal
p39
sa(dp40
g23
VVery mellowing effects; definitely feel the indica. Not as cerebral a high for me.\u000a
p41
sg25
(lp42
sg33
(lp43
g35
asg38
Vmigirk
p44
sa(dp45
g23
VNice and smooth. You don&#39;t get the skunk pucker with this one but a relaxed  yet alert state. Get creative now over b n a pig n blanket. Thanks Danks, always appreciate your honest advice about med and delivery time. You r real LoCal Vegas, keep up the great work.
p46
sg25
(lp47
sg33
(lp48
g35
asg38
VgraceNvegas702
p49
sa(dp50
g23
VHave not smoked in over 9 years and decided to give it a shot again. I was really relaxed with this strain. Not to big of a head rush, was able to sit around enjoy a movie and just have a good time.
p51
sg25
(lp52
S'Focused'
p53
aS'Happy'
p54
ag29
aS'Dry Mouth'
p55
asg33
(lp56
g35
asg38
VJay121
p57
sa(dp58
g23
VIt&#39;s okay. Short lasting experience. Pretty deep, but not enough. Calm and natural - it&#39;s awesome to take a walk after smoking it.
p59
sg25
(lp60
S'Energetic'
p61
aS'Euphoric'
p62
ag53
ag31
ag55
asg33
(lp63
g35
asg38
Vokayyoshi
p64
sa(dp65
g23
Vflame
p66
sg25
(lp67
sg33
(lp68
g35
asg38
Vkushgeneral
p69
sas.