(dp0
S'strain'
p1
S'destroyer'
p2
sS'categorias'
p3
cnumpy.core.multiarray
_reconstruct
p4
(cnumpy
ndarray
p5
(I0
tp6
S'b'
p7
tp8
Rp9
(I1
(I1
tp10
cnumpy
dtype
p11
(S'O8'
p12
I0
I1
tp13
Rp14
(I3
S'|'
p15
NNNI-1
I-1
I63
tp16
bI00
(lp17
S'Sativa'
p18
atp19
bsS'data_strain'
p20
(lp21
(dp22
S'reporte'
p23
Vamazing light, slightly tight but fluffy buds. amazing smell in nugget form. amazing flavour with every toke. I love my Sativas and this one just made my top 3. 
p24
sS'efectos'
p25
(lp26
S'Aroused'
p27
aS'Creative'
p28
aS'Energetic'
p29
aS'Euphoric'
p30
aS'Giggly'
p31
aS'Happy'
p32
aS'Talkative'
p33
aS'Tingly'
p34
aS'Uplifted'
p35
asS'sabores'
p36
(lp37
sS'usuario'
p38
Vsmokeylips1
p39
sas.