(dp0
S'strain'
p1
S'devil-fruit'
p2
sS'categorias'
p3
cnumpy.core.multiarray
_reconstruct
p4
(cnumpy
ndarray
p5
(I0
tp6
S'b'
p7
tp8
Rp9
(I1
(I1
tp10
cnumpy
dtype
p11
(S'O8'
p12
I0
I1
tp13
Rp14
(I3
S'|'
p15
NNNI-1
I-1
I63
tp16
bI00
(lp17
S'Indica'
p18
atp19
bsS'data_strain'
p20
(lp21
(dp22
S'reporte'
p23
VTiene una subida muy cerebral . Se nota el efecto del cbd, esto la hace una cepa com efecto Pl&#225;cido y tranquilo . 
p24
sS'efectos'
p25
(lp26
sS'sabores'
p27
(lp28
S'Fruit'
p29
asS'usuario'
p30
Vvenitez
p31
sa(dp32
g23
VIt\u2019s good for all symptoms for medical use. Good recreational weed too
p33
sg25
(lp34
sg27
(lp35
g29
asg30
VSmokerman
p36
sa(dp37
g23
Vmuy potente 
p38
sg25
(lp39
sg27
(lp40
g29
asg30
VMarshallAmnesia
p41
sa(dp42
g23
VOne of the best I have tried and my boyfriend is paralyzed and this helped him so much with his leg spasms!
p43
sg25
(lp44
sg27
(lp45
g29
asg30
Vjessnbill31813
p46
sa(dp47
g23
Vvery tasteful
p48
sg25
(lp49
S'Focused'
p50
aS'Relaxed'
p51
asg27
(lp52
g29
asg30
Vsunflowergyrl69
p53
sa(dp54
g23
VMethod: Glass Blunt.  I just smoked the smallest amount tonight and let me tell you I still feel reeeaal niiiiiice.  Such a great feeling of relaxation and tingling in all my joints and forehead.  Great for pain management.  This definitely has potential to be amazing when smoked in larger quantity.  Can&#39;t wait until my GF gets here so we can smoke a bunch together.
p55
sg25
(lp56
S'Euphoric'
p57
ag51
aS'Tingly'
p58
aS'Uplifted'
p59
aS'Dry Eyes'
p60
asg27
(lp61
g29
asg30
VOctans
p62
sa(dp63
g23
VI tried this and I love it but I&#39;ve not been able to find it since I tried it the dispensary ran out 
p64
sg25
(lp65
sg27
(lp66
g29
asg30
Velizabethbrown517
p67
sa(dp68
g23
VVery good head high, good if you want to pass the fuck out really fast.
p69
sg25
(lp70
S'Creative'
p71
aS'Happy'
p72
aS'Hungry'
p73
ag51
aS'Sleepy'
p74
ag59
asg27
(lp75
g29
asg30
VOGMARS
p76
sas.