(dp0
S'strain'
p1
S'double-dutch'
p2
sS'categorias'
p3
cnumpy.core.multiarray
_reconstruct
p4
(cnumpy
ndarray
p5
(I0
tp6
S'b'
p7
tp8
Rp9
(I1
(I1
tp10
cnumpy
dtype
p11
(S'O8'
p12
I0
I1
tp13
Rp14
(I3
S'|'
p15
NNNI-1
I-1
I63
tp16
bI00
(lp17
S'Hybrid'
p18
atp19
bsS'data_strain'
p20
(lp21
(dp22
S'reporte'
p23
VDon&#39;t care for the smell unless I bruise the terpines. Don&#39;t mistake it for the lovely Dutch Treat! This strain has pretty looking buds, smaller nugs. Open one up &amp; you&#39;ll enjoy seeing the trichombs!! The high is pretty potent. I prefer indica, yet I can enjoy this hybrid. Good for hunger, giggles, &amp; vegging out! 
p24
sS'efectos'
p25
(lp26
S'Giggly'
p27
aS'Hungry'
p28
aS'Relaxed'
p29
aS'Dry Mouth'
p30
asS'sabores'
p31
(lp32
S'Earthy'
p33
aS'Tar'
p34
asS'usuario'
p35
VMyStoneyBaby420
p36
sa(dp37
g23
VMuy buena raza, con peque&#241;as cantidades alcanzas grandes resultados.\u000aCausa mucha hambre
p38
sg25
(lp39
S'Creative'
p40
ag28
ag29
aS'Talkative'
p41
aS'Dizzy'
p42
asg31
(lp43
sg35
VTetera
p44
sa(dp45
g23
Vvery good bud nice to wake and bake and enjoy with a coffee.
p46
sg25
(lp47
S'Focused'
p48
aS'Happy'
p49
ag28
aS'Sleepy'
p50
ag41
aS'Tingly'
p51
aS'Uplifted'
p52
asg31
(lp53
sg35
Vabraham1
p54
sa(dp55
g23
Vgreat strain for a casual smoke. those munchies are real tho! 
p56
sg25
(lp57
g27
ag49
ag28
ag30
asg31
(lp58
S'Honey'
p59
aS'Pine'
p60
aS'Sweet'
p61
aS'Woody'
p62
asg35
Vqueertoker
p63
sa(dp64
g23
VGreat buzz. Gave me the munchies, though. 
p65
sg25
(lp66
sg31
(lp67
sg35
Velizabug
p68
sa(dp69
g23
VI really liked it and I like the people there always polite
p70
sg25
(lp71
sg31
(lp72
sg35
Vsotoanin
p73
sa(dp74
g23
Vgreat stuff. especially for medicating at night. 
p75
sg25
(lp76
S'Euphoric'
p77
ag49
ag52
asg31
(lp78
S'Berry'
p79
asg35
Vroseypose
p80
sa(dp81
g23
VGreat for insomnia!
p82
sg25
(lp83
g28
ag50
ag41
asg31
(lp84
S'Coffee'
p85
ag33
ag61
asg35
Vganjathebarbarian
p86
sas.