(dp0
S'strain'
p1
S'early-skunk'
p2
sS'categorias'
p3
cnumpy.core.multiarray
_reconstruct
p4
(cnumpy
ndarray
p5
(I0
tp6
S'b'
p7
tp8
Rp9
(I1
(I1
tp10
cnumpy
dtype
p11
(S'O8'
p12
I0
I1
tp13
Rp14
(I3
S'|'
p15
NNNI-1
I-1
I63
tp16
bI00
(lp17
S'Hybrid'
p18
atp19
bsS'data_strain'
p20
(lp21
(dp22
S'reporte'
p23
VI got 5g of this Strain and in some way it knocked me out.\u000aIt kind of prevented me from getting clear thoughts and i was confused about everything and nothing.\u000aI remember playing the Game of Life and i just couldn&#39;t pull myself together.\u000aThis never happend to me before.\u000a\u000aIf you get some of this strain I hope you&#39;re experience will be a better one.
p24
sS'efectos'
p25
(lp26
S'Dizzy'
p27
asS'sabores'
p28
(lp29
S'Skunk'
p30
asS'usuario'
p31
Vpeterpanzerknacker
p32
sas.