(dp0
S'strain'
p1
S'east-coast-alien'
p2
sS'categorias'
p3
cnumpy.core.multiarray
_reconstruct
p4
(cnumpy
ndarray
p5
(I0
tp6
S'b'
p7
tp8
Rp9
(I1
(I1
tp10
cnumpy
dtype
p11
(S'O8'
p12
I0
I1
tp13
Rp14
(I3
S'|'
p15
NNNI-1
I-1
I63
tp16
bI00
(lp17
S'Sativa'
p18
atp19
bsS'data_strain'
p20
(lp21
(dp22
S'reporte'
p23
VTastes similar to Sour D. Very strong 
p24
sS'efectos'
p25
(lp26
S'Energetic'
p27
aS'Happy'
p28
aS'Relaxed'
p29
aS'Uplifted'
p30
aS'Anxious'
p31
asS'sabores'
p32
(lp33
S'Chemical'
p34
aS'Diesel'
p35
aS'Earthy'
p36
asS'usuario'
p37
VZadkins
p38
sa(dp39
g23
VThe smell is diesel-ey.. typical Sativa type smell, but very strong. frosty, beautiful nugs. tastes pretty fresh. and you can&#39;t beat the buzz. great deal from Bloom, 50 bucks for a quarter! totally awesome 
p40
sg25
(lp41
g28
aS'Hungry'
p42
ag29
ag30
aS'Dry Mouth'
p43
asg32
(lp44
g35
ag36
aS'Mint'
p45
aS'Pine'
p46
aS'Pungent'
p47
aS'Spicy/Herbal'
p48
asg37
Vpurplepalmtrees10
p49
sa(dp50
g23
Vnothing special
p51
sg25
(lp52
sg32
(lp53
sg37
Vdbrzz
p54
sas.