(dp0
S'strain'
p1
S'el-nino'
p2
sS'categorias'
p3
cnumpy.core.multiarray
_reconstruct
p4
(cnumpy
ndarray
p5
(I0
tp6
S'b'
p7
tp8
Rp9
(I1
(I1
tp10
cnumpy
dtype
p11
(S'O8'
p12
I0
I1
tp13
Rp14
(I3
S'|'
p15
NNNI-1
I-1
I63
tp16
bI00
(lp17
S'Hybrid'
p18
atp19
bsS'data_strain'
p20
(lp21
(dp22
S'reporte'
p23
VThis really creeps up on me, love the strong head buzz. Also the buds look really good covered in all that crystal
p24
sS'efectos'
p25
(lp26
S'Euphoric'
p27
aS'Uplifted'
p28
asS'sabores'
p29
(lp30
sS'usuario'
p31
Vdarkz0
p32
sa(dp33
g23
VSmoked a couple bowl packs of this with gods gift and blue dream.. Awesome day
p34
sg25
(lp35
g27
aS'Focused'
p36
aS'Happy'
p37
ag28
aS'Dry Eyes'
p38
aS'Dry Mouth'
p39
aS'Headache'
p40
asg29
(lp41
sg31
VWetrippymane
p42
sa(dp43
g23
VNothing to write home to ma about.
p44
sg25
(lp45
g27
ag37
ag28
ag38
ag39
asg29
(lp46
sg31
VThwaylifeshouldbe
p47
sa(dp48
g23
Vthats my name iloveit
p49
sg25
(lp50
g27
aS'Giggly'
p51
aS'Tingly'
p52
ag38
ag39
asg29
(lp53
sg31
VMr.Nino
p54
sa(dp55
g23
VFuzzy, fun and relaxing high. First hit hits you like a truck and it&#39;s all good highness from there.
p56
sg25
(lp57
sg29
(lp58
S'Sweet'
p59
asg31
VWyly
p60
sa(dp61
g23
VGreat!!
p62
sg25
(lp63
g27
asg29
(lp64
sg31
Vmainegreenbud
p65
sa(dp66
g23
VAvid smoker of this strain. Lemon-y hints in it&#39;s flavor. Wonderful for a variety of ailments. 
p67
sg25
(lp68
g27
ag36
ag51
aS'Sleepy'
p69
ag38
ag39
ag40
aS'Paranoid'
p70
asg29
(lp71
sg31
Vsyckid92
p72
sa(dp73
g23
VFirst strain ive ever smoked with...still harsh as fuck\u000a\u000a  
p74
sg25
(lp75
sg29
(lp76
sg31
Vbrad360skate
p77
sa(dp78
g23
VUnderrated....\u000a
p79
sg25
(lp80
g36
aS'Hungry'
p81
aS'Relaxed'
p82
ag69
asg29
(lp83
S'Mango'
p84
asg31
VTdaddy69
p85
sa(dp86
g23
Vits a great old school strain. earthy herb&#39;y flavor &amp; smell. grows short &amp; stocky with big dense nugs that are rock hard. great yield- indoor organic hydro &amp; soil and outdoor organic soil. great during the afternoon or smoke a few more to go to sleep. good pain relief &amp; gets you high and stoned.
p87
sg25
(lp88
g37
ag82
ag69
aS'Talkative'
p89
ag28
asg29
(lp90
S'Earthy'
p91
aS'Pungent'
p92
aS'Skunk'
p93
aS'Spicy/Herbal'
p94
aS'Woody'
p95
asg31
VTKCannabinoid420
p96
sa(dp97
g23
VThis shit passed me the fuck out made my head spin
p98
sg25
(lp99
S'Aroused'
p100
ag27
ag69
asg29
(lp101
g91
aS'Nutty'
p102
ag59
ag95
asg31
Vdankgreen
p103
sa(dp104
g23
VThis is the first and only strain out of many that I&#39;ve tried that actually helps me fall asleep. It isn&#39;t the strongest when it comes to a &quot;high,&quot; but if you have issues falling asleep and the more popular Grandaddy Purple or Lemon OG aren&#39;t doing it for you, then El Ni&#241;o is definitely worth looking into. Not a favorite strain, but a useful one.\u000a\u000aHas an earthy smell with hints of mango. Taste-wise, it&#39;s a bit spicy.  Downsides are a possible headache if taken in large amounts, and the usual dry mouth and occasionally dry eyes. I experienced no paranoia or anxiety. The El Ni&#241;o I received was grown outdoors.
p105
sg25
(lp106
g37
ag81
ag82
ag69
ag38
ag39
ag40
asg29
(lp107
g91
ag84
asg31
V108
p108
sas.