(dp0
S'strain'
p1
S'enemy-of-the-state'
p2
sS'categorias'
p3
cnumpy.core.multiarray
_reconstruct
p4
(cnumpy
ndarray
p5
(I0
tp6
S'b'
p7
tp8
Rp9
(I1
(I1
tp10
cnumpy
dtype
p11
(S'O8'
p12
I0
I1
tp13
Rp14
(I3
S'|'
p15
NNNI-1
I-1
I63
tp16
bI00
(lp17
S'Indica'
p18
atp19
bsS'data_strain'
p20
(lp21
(dp22
S'reporte'
p23
VGreat strain. very smooth taste and intense high. a bit hard to find in amsterdam but if you can find it in good quality i would definitely recommend it. 
p24
sS'efectos'
p25
(lp26
S'Happy'
p27
aS'Relaxed'
p28
asS'sabores'
p29
(lp30
sS'usuario'
p31
VD3XtheG
p32
sa(dp33
g23
VA great strain for chilling.\u000aTaste is woody and not so great
p34
sg25
(lp35
sg29
(lp36
sg31
Vdapersiansmoka
p37
sa(dp38
g23
VIndica with uplifting effect.
p39
sg25
(lp40
g28
aS'Uplifted'
p41
asg29
(lp42
sg31
VYasuraka
p43
sa(dp44
g23
VGreat weed for the evening. And a nice slow burn.
p45
sg25
(lp46
S'Aroused'
p47
aS'Euphoric'
p48
aS'Paranoid'
p49
asg29
(lp50
sg31
Vdutchmary
p51
sa(dp52
g23
VSmokin this since 3 Days straight &#128514; relaxing realy describes the High most suitible 
p53
sg25
(lp54
S'Creative'
p55
ag48
ag28
aS'Talkative'
p56
aS'Anxious'
p57
asg29
(lp58
S'Earthy'
p59
aS'Flowery'
p60
aS'Sweet'
p61
aS'Woody'
p62
asg31
VAtisuto
p63
sa(dp64
g23
VLeast favorite strain so far. Definitely very arousing and good body high but somehow makes me anxious enough to dampen the experience
p65
sg25
(lp66
g47
aS'Focused'
p67
ag28
aS'Sleepy'
p68
ag57
aS'Dry Mouth'
p69
asg29
(lp70
sg31
Vcitruscanyon
p71
sas.