(dp0
S'strain'
p1
S'fat-purple'
p2
sS'categorias'
p3
cnumpy.core.multiarray
_reconstruct
p4
(cnumpy
ndarray
p5
(I0
tp6
S'b'
p7
tp8
Rp9
(I1
(I1
tp10
cnumpy
dtype
p11
(S'O8'
p12
I0
I1
tp13
Rp14
(I3
S'|'
p15
NNNI-1
I-1
I63
tp16
bI00
(lp17
S'Indica'
p18
atp19
bsS'data_strain'
p20
(lp21
(dp22
S'reporte'
p23
VTried this just last night!!\u000aGreat stuff calming, relaxing definitely worth a try if you haven&#39;t tried it yet.
p24
sS'efectos'
p25
(lp26
S'Aroused'
p27
aS'Euphoric'
p28
aS'Giggly'
p29
aS'Happy'
p30
aS'Relaxed'
p31
asS'sabores'
p32
(lp33
sS'usuario'
p34
Vjdawg0121
p35
sa(dp36
g23
VReally good. Smells super sweet. Used for headaches. 
p37
sg25
(lp38
sg32
(lp39
sg34
Vmojoriley12
p40
sa(dp41
g23
VThis was a Great grow. I love this strain. So Beautiful and potent. It will knock your D in the dirt for real. Press it into some rosin and take that ride if you are able. A++ hopefully i can upload a picture.
p42
sg25
(lp43
g28
ag30
ag31
asg32
(lp44
sg34
VSofaKingHigh420710
p45
sa(dp46
g23
VGreat nighttime strain! Heard this one was an aphrodisiac, and yes I think it would be nice to have sexy times with this strain, but it doesn&#39;t necessarily do just that. It made me feel really relaxed and okay with everything, great night sleep.
p47
sg25
(lp48
g27
ag28
ag30
ag31
asg32
(lp49
sg34
VHippieLongStockings
p50
sas.