(dp0
S'strain'
p1
S'frisian-duck'
p2
sS'categorias'
p3
cnumpy.core.multiarray
_reconstruct
p4
(cnumpy
ndarray
p5
(I0
tp6
S'b'
p7
tp8
Rp9
(I1
(I1
tp10
cnumpy
dtype
p11
(S'O8'
p12
I0
I1
tp13
Rp14
(I3
S'|'
p15
NNNI-1
I-1
I63
tp16
bI00
(lp17
S'Hybrid'
p18
atp19
bsS'data_strain'
p20
(lp21
(dp22
S'reporte'
p23
VI always thought that in general cannabis is for &#39;after hours relaxation&#39; till I met this strain. I was surprise of the focusing effect it gave to me and I have no problems to use it during a day especially in the afternoon when my mind becomes a bit sluggish.
p24
sS'efectos'
p25
(lp26
S'Energetic'
p27
aS'Focused'
p28
aS'Uplifted'
p29
asS'sabores'
p30
(lp31
sS'usuario'
p32
Vmacqo
p33
sa(dp34
g23
Vreally easy to grow! the buds turned really dark purple with green and purple leaves wich made them look just beautiful. The smell was spicy and really fruity, the smoke really smooth and tasted like berries. i had a really nice energetic sativa high and running on my bare feet suddenly felt great. The best strain for stealthy growing cause the leaves are unrecognizable
p35
sg25
(lp36
S'Creative'
p37
ag27
aS'Euphoric'
p38
ag28
aS'Giggly'
p39
aS'Happy'
p40
aS'Talkative'
p41
ag29
asg30
(lp42
S'Berry'
p43
aS'Grape'
p44
aS'Pine'
p45
aS'Spicy/Herbal'
p46
aS'Sweet'
p47
asg32
Vlowied
p48
sa(dp49
g23
VHabe sie nur Indoor gezogen. W&#228;chst mehr sativa-dominant, aber sehr kr&#228;ftig mit einem gewaltigen mainbud der bei mir  sogar Indoor noch sch&#246;n lila wurde. Man kann sie nach 45 Tagen schon ernten, mit guter Wirkung und massig Bl&#252;ten, die frisianduck hat ihr vollstes Potenzial aber erst nach 65-75 Tagen erreicht, ist zumindest bei meiner duck so, typisch sativa halt. Die Harzdr&#252;sen sind bei der fdk auch sehr fein/klein, daf&#252;r aber auch sehr zahlreich  vorhanden. Die fdk ist nicht die st&#228;rkste  Sorte, aber auch nicht die schw&#228;chste. Mal sehen wie sie sich daussen macht. Kann mir schwer vorstellen das die drau&#223;en rechtzeitig fertig wird, ich meine richtig fertig. Die Tarnwirkung ist bei meinem ph&#228;no astrein, auch in der endbl&#252;te ist Kein erkennbares Cannabisblatt gewachsen und die Bl&#252;ten sehen auch aus wie irgendwelche staudengew&#228;chse.das Aroma ist finde ich einzigartig, riecht so nach bunten Pfeffer und Standardplatte, hat schon was.
p50
sg25
(lp51
S'Hungry'
p52
aS'Relaxed'
p53
aS'Sleepy'
p54
aS'Tingly'
p55
aS'Dizzy'
p56
aS'Dry Eyes'
p57
aS'Dry Mouth'
p58
asg30
(lp59
S'Earthy'
p60
aS'Lavender'
p61
aS'Menthol'
p62
aS'Mint'
p63
aS'Pepper'
p64
ag45
aS'Pineapple'
p65
ag47
aS'Tropical'
p66
aS'Woody'
p67
asg32
VKifferspritze
p68
sa(dp69
g23
VThat moment of pepper flavour...
p70
sg25
(lp71
sg30
(lp72
sg32
Vganjaminjan
p73
sa(dp74
g23
VThe only interesting thing about this plant is the looks. I just hated the effect, the high is almost non-existent, the only thing it does is make your mind go empty and get you tired, no creativity and no energy what so ever. If you really want to waste a few hours of your life smoke this.\u000a\u000aI&#39;ve tasted this strain from two different growers with the same results, definetly NOT recommended.
p75
sg25
(lp76
g54
ag58
asg30
(lp77
sg32
VCaptainDickson
p78
sas.