(dp0
S'strain'
p1
S'ganesh-berry'
p2
sS'categorias'
p3
cnumpy.core.multiarray
_reconstruct
p4
(cnumpy
ndarray
p5
(I0
tp6
S'b'
p7
tp8
Rp9
(I1
(I1
tp10
cnumpy
dtype
p11
(S'O8'
p12
I0
I1
tp13
Rp14
(I3
S'|'
p15
NNNI-1
I-1
I63
tp16
bI00
(lp17
S'Hybrid'
p18
atp19
bsS'data_strain'
p20
(lp21
(dp22
S'reporte'
p23
Va very effective cerebral buzz with a very nice body stoned. a great smoke for chilling out when there&#39;s nothing you have to do (coz it&#39;s not going to happen, especially if you hit the vape! ) ~PpP~
p24
sS'efectos'
p25
(lp26
sS'sabores'
p27
(lp28
S'Berry'
p29
asS'usuario'
p30
VKoopa74
p31
sa(dp32
g23
Vlove it, nice head buzz and a awesome body stoned. \u000aespecially if smoked through a vape set up! ~PpP~
p33
sg25
(lp34
S'Creative'
p35
aS'Euphoric'
p36
aS'Focused'
p37
aS'Giggly'
p38
aS'Relaxed'
p39
aS'Sleepy'
p40
aS'Uplifted'
p41
aS'Headache'
p42
asg27
(lp43
S'Apple'
p44
aS'Apricot'
p45
ag29
aS'Blue Cheese'
p46
aS'Blueberry'
p47
aS'Cheese'
p48
aS'Citrus'
p49
aS'Flowery'
p50
aS'Grape'
p51
aS'Grapefruit'
p52
aS'Honey'
p53
aS'Lavender'
p54
aS'Lemon'
p55
aS'Lime'
p56
aS'Mango'
p57
aS'Orange'
p58
aS'Peach'
p59
aS'Pear'
p60
aS'Pine'
p61
aS'Pineapple'
p62
aS'Plum'
p63
aS'Skunk'
p64
aS'Spicy/Herbal'
p65
aS'Strawberry'
p66
aS'Sweet'
p67
aS'Tree'
p68
aS'Fruit'
p69
aS'Tropical'
p70
aS'Vanilla'
p71
asg30
VKoopa74
p72
sa(dp73
g23
VThis is pretty much the absolute best strain I&#39;ve ever had. it&#39;s super well balanced, extremely mellow high. I have yet to have any negative effects from it. it&#39;s the kind of high you can do anything on. whether you want to chill on the couch, or be creative, or work, there&#39;s literally nothing you can&#39;t do on this strain.
p74
sg25
(lp75
g36
aS'Happy'
p76
ag39
aS'Talkative'
p77
ag41
asg27
(lp78
S'Earthy'
p79
ag50
asg30
VPickleziad
p80
sas.