(dp0
S'strain'
p1
S'godfather-purple-kush'
p2
sS'categorias'
p3
cnumpy.core.multiarray
_reconstruct
p4
(cnumpy
ndarray
p5
(I0
tp6
S'b'
p7
tp8
Rp9
(I1
(I1
tp10
cnumpy
dtype
p11
(S'O8'
p12
I0
I1
tp13
Rp14
(I3
S'|'
p15
NNNI-1
I-1
I63
tp16
bI00
(lp17
S'Indica'
p18
atp19
bsS'data_strain'
p20
(lp21
(dp22
S'reporte'
p23
VI use to love this strain it&#39;s yummy and an awesome body high! but after I started taking my anxiety medications it seemed to make me way more anxious.
p24
sS'efectos'
p25
(lp26
sS'sabores'
p27
(lp28
sS'usuario'
p29
VStorm003
p30
sa(dp31
g23
VDelicious flavor in a Pax 2 on heat setting 2, sweet grape and very pleasant. I raised the temp to 3 and I started getting very jittery. Will have to try again, the flavor is great but the side effects aren&#39;t seemingly worth it.
p32
sg25
(lp33
sg27
(lp34
sg29
VChimaera
p35
sa(dp36
g23
Vitis such a great smoke highly recommend for indica lovers 
p37
sg25
(lp38
S'Giggly'
p39
aS'Happy'
p40
aS'Hungry'
p41
aS'Relaxed'
p42
aS'Talkative'
p43
aS'Tingly'
p44
asg27
(lp45
S'Berry'
p46
aS'Earthy'
p47
aS'Woody'
p48
asg29
Vjcrowley420
p49
sa(dp50
g23
VThis strain is off the charts.  You will def not be disappointed all around
p51
sg25
(lp52
S'Aroused'
p53
aS'Euphoric'
p54
ag40
ag42
asg27
(lp55
S'Blueberry'
p56
aS'Citrus'
p57
asg29
VJimmbo
p58
sa(dp59
g23
VThis strain is off the charts. U will not be disappointed at all.
p60
sg25
(lp61
g53
ag54
ag40
ag42
asg27
(lp62
sg29
VJimmbo
p63
sa(dp64
g23
VNice heavy high
p65
sg25
(lp66
g40
asg27
(lp67
sg29
VYoungjordan2162
p68
sa(dp69
g23
Vgreat buzz, sweet taste. 
p70
sg25
(lp71
sg27
(lp72
sg29
VTriptoxic
p73
sa(dp74
g23
Vone of the most smoothest strains of pure Indica I truly believe it&#39;s king I love my Indica for night and this one puts me out and makes me feel pain and stress free love it
p75
sg25
(lp76
g54
ag39
ag40
ag41
ag42
aS'Sleepy'
p77
ag44
asg27
(lp78
sg29
Vjcrowley420
p79
sa(dp80
g23
VIt was a good sleeping high, my friend has a 3D tv and we wares polar express and it was like we were in the movie! It is well recommended, I&#39;d say nothing wrong with it. But I&#39;d really say that about any weed! 
p81
sg25
(lp82
sg27
(lp83
sg29
VGRat16
p84
sas.