(dp0
S'strain'
p1
S'grape-inferno'
p2
sS'categorias'
p3
cnumpy.core.multiarray
_reconstruct
p4
(cnumpy
ndarray
p5
(I0
tp6
S'b'
p7
tp8
Rp9
(I1
(I1
tp10
cnumpy
dtype
p11
(S'O8'
p12
I0
I1
tp13
Rp14
(I3
S'|'
p15
NNNI-1
I-1
I63
tp16
bI00
(lp17
S'Indica'
p18
atp19
bsS'data_strain'
p20
(lp21
(dp22
S'reporte'
p23
VGreat for an indica, heavy without the couch lock and great after taste. On the look out for more!
p24
sS'efectos'
p25
(lp26
sS'sabores'
p27
(lp28
S'Grape'
p29
asS'usuario'
p30
VAbstonlob235
p31
sa(dp32
g23
VWas not as good as I thought it would be.
p33
sg25
(lp34
sg27
(lp35
g29
asg30
Vamberkelly
p36
sa(dp37
g23
Vvery tasty, eyes are swoll... great strain, sugary and bright grapefruit flavours. mellow,  long lasting effect
p38
sg25
(lp39
S'Focused'
p40
aS'Hungry'
p41
aS'Relaxed'
p42
aS'Sleepy'
p43
asg27
(lp44
S'Citrus'
p45
ag29
aS'Grapefruit'
p46
aS'Pungent'
p47
aS'Tropical'
p48
asg30
Vbutterandherbmashedtaters
p49
sa(dp50
g23
V11%cbd
p51
sg25
(lp52
sg27
(lp53
g29
asg30
Vbluntsmoking92
p54
sa(dp55
g23
VAmazing indica dense indica nugs insane grape skunk smell and taste will knock you out pain has no chance if 20 thc or more don&#39;t hesitate get it dank you very much
p56
sg25
(lp57
g42
ag43
asg27
(lp58
g29
aS'Skunk'
p59
asg30
VDank Sinatra old red eyes
p60
sa(dp61
g23
VPsychoanalytical conclusion: Definite 5 star general\u000a
p62
sg25
(lp63
S'Aroused'
p64
aS'Creative'
p65
aS'Energetic'
p66
aS'Euphoric'
p67
ag40
aS'Happy'
p68
ag42
ag43
aS'Talkative'
p69
aS'Uplifted'
p70
aS'Dry Mouth'
p71
asg27
(lp72
g29
asg30
Vpurplevegan
p73
sa(dp74
g23
Vgreat strain, good high and got the best sleep ever 
p75
sg25
(lp76
sg27
(lp77
g29
asg30
Vrollingstoner5
p78
sa(dp79
g23
VReally great flavor, and a really good on set. Very dense and nice looking bud. Smells amazing. Very strong cerebral High. I really have enjoyed this one!
p80
sg25
(lp81
g67
ag68
ag42
aS'Tingly'
p82
ag71
asg27
(lp83
S'Diesel'
p84
ag29
aS'Pepper'
p85
ag59
aS'Spicy/Herbal'
p86
aS'Sweet'
p87
asg30
VJorundHallthor
p88
sa(dp89
g23
VAWESOME!! All I can say this is the best strain. it really relaxes you. kills the pain and knocks you out!! If you have an opportunity to try this! Do so. You won&#39;t regret it.
p90
sg25
(lp91
g42
ag43
aS'Dry Eyes'
p92
ag71
asg27
(lp93
g29
asg30
VMrPhatal
p94
sa(dp95
g23
VGreat indica! Awesome body and mental high, great for relaxing.
p96
sg25
(lp97
sg27
(lp98
g29
asg30
Vmatblopes
p99
sa(dp100
g23
VExcellent! A purrrfect Indica! 
p101
sg25
(lp102
g42
asg27
(lp103
g29
aS'Tree'
p104
asg30
VDustin50Tree
p105
sa(dp106
g23
VDefinitely a good body/head high before bed. I could taste the berry/grape flavor instantly. 
p107
sg25
(lp108
g42
ag43
ag82
ag71
asg27
(lp109
S'Berry'
p110
ag29
aS'Sage'
p111
asg30
VCamSiebenmark93
p112
sa(dp113
g23
Vugh. kept me  awake. resembles a sativa dominant hybrid . does not seem like a good indica.I don&#39;t like it. very mid-level would not recommend
p114
sg25
(lp115
sg27
(lp116
g29
asg30
Vgirlslocker
p117
sas.