(dp0
S'strain'
p1
S'head-trip'
p2
sS'categorias'
p3
cnumpy.core.multiarray
_reconstruct
p4
(cnumpy
ndarray
p5
(I0
tp6
S'b'
p7
tp8
Rp9
(I1
(I1
tp10
cnumpy
dtype
p11
(S'O8'
p12
I0
I1
tp13
Rp14
(I3
S'|'
p15
NNNI-1
I-1
I63
tp16
bI00
(lp17
S'Hybrid'
p18
atp19
bsS'data_strain'
p20
(lp21
(dp22
S'reporte'
p23
VI like
p24
sS'efectos'
p25
(lp26
sS'sabores'
p27
(lp28
sS'usuario'
p29
VSilver420
p30
sa(dp31
g23
VGreat head feel, very body relaxed and well rounded. Very nice strain.
p32
sg25
(lp33
S'Focused'
p34
aS'Happy'
p35
aS'Relaxed'
p36
aS'Tingly'
p37
aS'Uplifted'
p38
asg27
(lp39
S'Coffee'
p40
aS'Pine'
p41
aS'Sweet'
p42
asg29
Vlaidbackjt
p43
sa(dp44
g23
VPurchased a half gram from the dispensary to sample. \u000a\u000aPretty stoney high --- right to the head.\u000a\u000aTotal body relief\u000a\u000aGreat for this rainy Saturday afternoon @ 1:24pm in DC\u000a\u000aReally at ease. \u000a\u000aWill have to try this again and maybe mix it with some Skywalker Kush!!!!
p45
sg25
(lp46
sg27
(lp47
sg29
V420Lush
p48
sa(dp49
g23
VExactly as the name said        Great for the head, made me forget my problems (pain)
p50
sg25
(lp51
g36
asg27
(lp52
sg29
Vtravers13
p53
sa(dp54
g23
VHead trip is Very easy going! I liked it!
p55
sg25
(lp56
sg27
(lp57
sg29
VDukeofearlie
p58
sa(dp59
g23
VBLORTZ SEZ PAPAYA CHOCO JAVA SANDALWOOD HEADY CRISPY...
p60
sg25
(lp61
S'Euphoric'
p62
ag35
ag36
ag38
asg27
(lp63
g40
aS'Tree'
p64
aS'Fruit'
p65
aS'Woody'
p66
asg29
VBLORTZ
p67
sa(dp68
g23
VGreat taste earthy and bold, the high was mellow and calm it created a sense of self awareness 
p69
sg25
(lp70
g34
ag36
ag38
asg27
(lp71
g40
aS'Diesel'
p72
aS'Earthy'
p73
asg29
Vdankicken21
p74
sa(dp75
g23
VThis is a hard strain to describe.  it&#39;s an indica dominate hybrid but it has crazy cerebral effects.  It has a good indica relaxing feel yet it doesn&#39;t drag you down.  The high is very unique, and the name describes the strain very well.
p76
sg25
(lp77
sg27
(lp78
sg29
Vslayerfan209
p79
sa(dp80
g23
Vlove it!! tast good has me happy feelin never better
p81
sg25
(lp82
g34
aS'Giggly'
p83
ag35
asg27
(lp84
sg29
Vedwardj31992
p85
sa(dp86
g23
Vgood stuff I drive from mesa just to go to this 1 dispensery cause of the different options I get there
p87
sg25
(lp88
sg27
(lp89
sg29
VGhost0912
p90
sa(dp91
g23
VHighbrid head trip
p92
sg25
(lp93
S'Creative'
p94
aS'Energetic'
p95
ag62
ag34
ag35
aS'Talkative'
p96
ag38
asg27
(lp97
sg29
Vcrismikematt
p98
sa(dp99
g23
V\u000a
p100
sg25
(lp101
sg27
(lp102
sg29
Vadamwrule
p103
sa(dp104
g23
VLoving the crown this dab produced it was almost instantaneous. Dark colored shatter zero bubnles with a very flowery taste. 
p105
sg25
(lp106
g35
ag36
ag37
asg27
(lp107
sg29
VRyno602
p108
sa(dp109
g23
VMy eyeballs hurt and my friend Ashlyn says she feels uncomfortably focused but we sitting in her yellow ass room and I&#39;m pretty sure that&#39;s one of the effects intense yellow has one the mind too
p110
sg25
(lp111
g34
asg27
(lp112
g73
aS'Pepper'
p113
aS'Spicy/Herbal'
p114
asg29
Vgriffindcw
p115
sa(dp116
g23
VPain &amp; Strees Reliever 
p117
sg25
(lp118
sg27
(lp119
sg29
VGeno89
p120
sa(dp121
g23
VI love this sativa strand. love the no bad side effects!
p122
sg25
(lp123
sg27
(lp124
sg29
Vbaybejai
p125
sa(dp126
g23
VIt&#39;s pretty good
p127
sg25
(lp128
sg27
(lp129
sg29
VChavez928
p130
sa(dp131
g23
Vthis dispensary has the best  pre- rolls mix w/ kief headtrip ,zombie , they are awesome must try 
p132
sg25
(lp133
g35
ag36
aS'Sleepy'
p134
asg27
(lp135
sg29
VTommycorrea69
p136
sas.