(dp0
S'strain'
p1
S'industrial-plant'
p2
sS'categorias'
p3
cnumpy.core.multiarray
_reconstruct
p4
(cnumpy
ndarray
p5
(I0
tp6
S'b'
p7
tp8
Rp9
(I1
(I1
tp10
cnumpy
dtype
p11
(S'O8'
p12
I0
I1
tp13
Rp14
(I3
S'|'
p15
NNNI-1
I-1
I63
tp16
bI00
(lp17
S'Hybrid'
p18
atp19
bsS'data_strain'
p20
(lp21
(dp22
S'reporte'
p23
VGood to sleep but sometimes it makes you paranoid
p24
sS'efectos'
p25
(lp26
S'Sleepy'
p27
aS'Anxious'
p28
aS'Dry Eyes'
p29
aS'Dry Mouth'
p30
aS'Paranoid'
p31
asS'sabores'
p32
(lp33
sS'usuario'
p34
Vjoadler
p35
sa(dp36
g23
VFelt good, played games with friends. very uplifting went on to 4.20 am. Laughed a lot. Felt clear
p37
sg25
(lp38
S'Creative'
p39
aS'Energetic'
p40
aS'Euphoric'
p41
aS'Giggly'
p42
aS'Happy'
p43
aS'Uplifted'
p44
ag29
ag30
asg32
(lp45
sg34
VFuturopen
p46
sa(dp47
g23
VVery strong strain 
p48
sg25
(lp49
g39
ag40
ag41
asg32
(lp50
S'Mango'
p51
asg34
VMangokush666
p52
sas.