(dp0
S'strain'
p1
S'jack-47'
p2
sS'categorias'
p3
cnumpy.core.multiarray
_reconstruct
p4
(cnumpy
ndarray
p5
(I0
tp6
S'b'
p7
tp8
Rp9
(I1
(I1
tp10
cnumpy
dtype
p11
(S'O8'
p12
I0
I1
tp13
Rp14
(I3
S'|'
p15
NNNI-1
I-1
I63
tp16
bI00
(lp17
S'Hybrid'
p18
atp19
bsS'data_strain'
p20
(lp21
(dp22
S'reporte'
p23
Vbeautiful smell of grapefruit and pine, with a great uplifting high. Had an awesome head rush without being anxious falling into a great body numbness. at one point I was able to zone out and couldn&#39;t feel any of my limbs, bit mental really. 
p24
sS'efectos'
p25
(lp26
S'Focused'
p27
aS'Happy'
p28
aS'Relaxed'
p29
aS'Tingly'
p30
asS'sabores'
p31
(lp32
S'Earthy'
p33
aS'Grape'
p34
aS'Grapefruit'
p35
aS'Pine'
p36
asS'usuario'
p37
Vbtownbuds
p38
sa(dp39
g23
VVery good 
p40
sg25
(lp41
sg31
(lp42
sg37
VGHot
p43
sa(dp44
g23
VThis tastes really nice smoke.\u000aSkunky with a bit of Thai stick and some Columbian taste too, and yes there is Mexican in this too.\u000a\u000a It is a very smooth toke compared to other strains.But you may cough due to the high THC conent.\u000aThe Skunk will either knock you out, or even take you higher to a new level of conciousness\u000a\u000aThis is good when you want to get really high.\u000aHands down ripper.\u000aJust have a few puffs.
p45
sg25
(lp46
S'Aroused'
p47
aS'Creative'
p48
aS'Energetic'
p49
aS'Euphoric'
p50
ag28
aS'Hungry'
p51
aS'Talkative'
p52
asg31
(lp53
sg37
V1989Cadillac
p54
sa(dp55
g23
VA very potent hybrid, which in a proper growing can be tremendous. The batch I got was outdoor and not very well grown and cured. Thick buds with heavy aromas and both sativa and indica effects. Probably very good for medical use. Not one of my favourites for sure. If I get a better quality I will update.
p56
sg25
(lp57
g50
ag28
ag29
aS'Dry Eyes'
p58
asg31
(lp59
g33
aS'Spicy/Herbal'
p60
aS'Woody'
p61
asg37
Vanown
p62
sa(dp63
g23
VCertainly among my Top 5 favorite strains, u get a one of a kind high from this one. Hits u like a god damn truck!!!
p64
sg25
(lp65
g50
ag28
asg31
(lp66
sg37
Vbushmeister
p67
sa(dp68
g23
VAesome
p69
sg25
(lp70
g49
ag50
ag27
aS'Giggly'
p71
ag28
ag51
ag52
aS'Uplifted'
p72
asg31
(lp73
S'Chemical'
p74
aS'Sage'
p75
asg37
Veb
p76
sa(dp77
g23
Vthis bud smells as beautiful as it looks. great taste great feeling. 
p78
sg25
(lp79
sg31
(lp80
sg37
Vnicflo
p81
sas.