(dp0
S'strain'
p1
S'k1'
p2
sS'categorias'
p3
cnumpy.core.multiarray
_reconstruct
p4
(cnumpy
ndarray
p5
(I0
tp6
S'b'
p7
tp8
Rp9
(I1
(I1
tp10
cnumpy
dtype
p11
(S'O8'
p12
I0
I1
tp13
Rp14
(I3
S'|'
p15
NNNI-1
I-1
I63
tp16
bI00
(lp17
S'Hybrid'
p18
atp19
bsS'data_strain'
p20
(lp21
(dp22
S'reporte'
p23
VHeavy scent before breaking it up.  Upon grinding a wonderful slight chemical smell and a very strong sage smell.  This strain has a distinct cedar scent.\u000a\u000aWill definitely review again due to this being the first experience with it.   Creative juices flow almost immediately, wanting to write a full report now.  Must hold myself back.
p24
sS'efectos'
p25
(lp26
S'Creative'
p27
aS'Energetic'
p28
aS'Focused'
p29
aS'Happy'
p30
aS'Uplifted'
p31
asS'sabores'
p32
(lp33
S'Ammonia'
p34
aS'Pepper'
p35
aS'Sage'
p36
asS'usuario'
p37
VSyntaxErr
p38
sa(dp39
g23
VHands down the beast strain out there. 
p40
sg25
(lp41
sg32
(lp42
sg37
VCurtisFuchs
p43
sa(dp44
g23
VNice trichs...smells great and burns great...taste is ok..great for rolling and as pre run it gives a good return
p45
sg25
(lp46
g27
aS'Euphoric'
p47
ag30
aS'Relaxed'
p48
ag31
asg32
(lp49
g34
ag35
aS'Sweet'
p50
asg37
Vross.turner.188
p51
sa(dp52
g23
VK1 was the best weed I ever smoked, because of the happy and relaxed feeling I&#39;ve got.
p53
sg25
(lp54
sg32
(lp55
sg37
VHollandPie
p56
sa(dp57
g23
Vpretty smooth sativa strain, nice chemical taste to it. not bad, but not amazeballz. unfit if already feeling a little anxious 
p58
sg25
(lp59
S'Aroused'
p60
ag29
ag30
aS'Hungry'
p61
aS'Anxious'
p62
asg32
(lp63
S'Chemical'
p64
aS'Pine'
p65
asg37
VDianadap
p66
sa(dp67
g23
Vgood for smoking before activities or parties. after the happy, tingly high wares off, you&#39;re left very relaxed. makes for a great night of sleep.
p68
sg25
(lp69
sg32
(lp70
g65
asg37
Vakadark
p71
sa(dp72
g23
VGot this in shatter form. Very smooth smoke and buzz that gives you a type of a body and heady high combo. New one for me and I&#39;m enjoying it 
p73
sg25
(lp74
g47
ag29
ag30
ag48
aS'Sleepy'
p75
ag31
asg32
(lp76
sg37
VDmoney410
p77
sa(dp78
g23
VNice lengthy high. Great to start the day and keep it going.
p79
sg25
(lp80
sg32
(lp81
sg37
Vcernmoore
p82
sas.