(dp0
S'strain'
p1
S'kali-dog'
p2
sS'categorias'
p3
cnumpy.core.multiarray
_reconstruct
p4
(cnumpy
ndarray
p5
(I0
tp6
S'b'
p7
tp8
Rp9
(I1
(I1
tp10
cnumpy
dtype
p11
(S'O8'
p12
I0
I1
tp13
Rp14
(I3
S'|'
p15
NNNI-1
I-1
I63
tp16
bI00
(lp17
S'Hybrid'
p18
atp19
bsS'data_strain'
p20
(lp21
(dp22
S'reporte'
p23
VNever had kali dog before but after being able to sample this its a really enjoyable hybrid.\u000aSerious citrus and fuel smells. Taste is good. Nice balanced effect that uplifted my mood, relaxed me whilst keeping me\u000aSOMEWHAT clear headed LOL
p24
sS'efectos'
p25
(lp26
S'Euphoric'
p27
aS'Happy'
p28
aS'Relaxed'
p29
aS'Uplifted'
p30
aS'Dry Eyes'
p31
asS'sabores'
p32
(lp33
S'Citrus'
p34
aS'Diesel'
p35
aS'Lemon'
p36
asS'usuario'
p37
Vehunnikeffu
p38
sa(dp39
g23
V3 phenos out of a 3 pack of beans. each very different. pheno 1 was a moderately yielding indica dominant specimen, it tasted exactly how it i thought it should have and took 9 weeks. Phenos 2 and 3 was too crap to bother talking about.
p40
sg25
(lp41
sg32
(lp42
sg37
VPharoh
p43
sas.