(dp0
S'strain'
p1
S'kill-bill'
p2
sS'categorias'
p3
cnumpy.core.multiarray
_reconstruct
p4
(cnumpy
ndarray
p5
(I0
tp6
S'b'
p7
tp8
Rp9
(I1
(I1
tp10
cnumpy
dtype
p11
(S'O8'
p12
I0
I1
tp13
Rp14
(I3
S'|'
p15
NNNI-1
I-1
I63
tp16
bI00
(lp17
S'Hybrid'
p18
atp19
bsS'data_strain'
p20
(lp21
(dp22
S'reporte'
p23
VThis is a nice relaxed hybrid \u000aDefinitely gives you the calmness and the sleepiness of both sides\u000aOnce one gets over the taste which isn&#39;t too too bad the lift off is great!
p24
sS'efectos'
p25
(lp26
sS'sabores'
p27
(lp28
sS'usuario'
p29
VDeucsBday420
p30
sa(dp31
g23
VThis strain is potent and reminds me of sour diesel. It&#39;s good for stress and can cause fits of laughter and even put you to sleep if you&#39;re not careful
p32
sg25
(lp33
S'Euphoric'
p34
aS'Giggly'
p35
aS'Hungry'
p36
aS'Sleepy'
p37
asg27
(lp38
S'Pungent'
p39
asg29
VKiiingsBreathTHC
p40
sa(dp41
g23
VVery quick to get me high, smooth on my lungs but strong flavor..it was a nice sativa dominant (imo) strain that&#39;s visibly pretty as well. I&#39;d definitely keep smoking this.,
p42
sg25
(lp43
S'Happy'
p44
aS'Relaxed'
p45
ag37
aS'Uplifted'
p46
asg27
(lp47
S'Diesel'
p48
aS'Earthy'
p49
aS'Mango'
p50
aS'Pine'
p51
aS'Sage'
p52
aS'Tea'
p53
aS'Tobacco'
p54
aS'Tree'
p55
aS'Fruit'
p56
aS'Tropical'
p57
aS'Woody'
p58
asg29
Vbrittanyx4628
p59
sas.