(dp0
S'strain'
p1
S'killer-grape'
p2
sS'categorias'
p3
cnumpy.core.multiarray
_reconstruct
p4
(cnumpy
ndarray
p5
(I0
tp6
S'b'
p7
tp8
Rp9
(I1
(I1
tp10
cnumpy
dtype
p11
(S'O8'
p12
I0
I1
tp13
Rp14
(I3
S'|'
p15
NNNI-1
I-1
I63
tp16
bI00
(lp17
S'Hybrid'
p18
atp19
bsS'data_strain'
p20
(lp21
(dp22
S'reporte'
p23
VGreat strain... Makes me focus and has a unique taste... And it&#39;s purple
p24
sS'efectos'
p25
(lp26
S'Creative'
p27
aS'Energetic'
p28
aS'Euphoric'
p29
aS'Focused'
p30
aS'Giggly'
p31
aS'Happy'
p32
aS'Hungry'
p33
aS'Relaxed'
p34
aS'Talkative'
p35
asS'sabores'
p36
(lp37
S'Grape'
p38
asS'usuario'
p39
VNycplug
p40
sa(dp41
g23
VGreat strain ,like all tga genetics...to much sticky crystals on the bud and fan leaves to...(just cwrazy)very sweet for hasj making ...for sure.... good luck and love to all&#128402;
p42
sg25
(lp43
g29
ag32
asg36
(lp44
S'Sweet'
p45
aS'Tropical'
p46
asg39
VDutchCannasseur
p47
sa(dp48
g23
VMy favorite strain! Wonderful fruity taste and after smoking it I want to do everything: clean my house, paint, go work out etc. 
p49
sg25
(lp50
sg36
(lp51
g38
asg39
VColliersavannah
p52
sas.