(dp0
S'strain'
p1
S'kiwiskunk'
p2
sS'categorias'
p3
cnumpy.core.multiarray
_reconstruct
p4
(cnumpy
ndarray
p5
(I0
tp6
S'b'
p7
tp8
Rp9
(I1
(I1
tp10
cnumpy
dtype
p11
(S'O8'
p12
I0
I1
tp13
Rp14
(I3
S'|'
p15
NNNI-1
I-1
I63
tp16
bI00
(lp17
S'Indica'
p18
atp19
bsS'data_strain'
p20
(lp21
(dp22
S'reporte'
p23
VVery good stuff, very relaxing yet energizing! 
p24
sS'efectos'
p25
(lp26
S'Aroused'
p27
aS'Euphoric'
p28
aS'Giggly'
p29
aS'Happy'
p30
aS'Hungry'
p31
aS'Relaxed'
p32
aS'Sleepy'
p33
aS'Dry Eyes'
p34
asS'sabores'
p35
(lp36
S'Citrus'
p37
aS'Spicy/Herbal'
p38
aS'Woody'
p39
asS'usuario'
p40
V2strokeWeedBagga
p41
sas.