(dp0
S'strain'
p1
S'kobain-kush'
p2
sS'categorias'
p3
cnumpy.core.multiarray
_reconstruct
p4
(cnumpy
ndarray
p5
(I0
tp6
S'b'
p7
tp8
Rp9
(I1
(I1
tp10
cnumpy
dtype
p11
(S'O8'
p12
I0
I1
tp13
Rp14
(I3
S'|'
p15
NNNI-1
I-1
I63
tp16
bI00
(lp17
S'Indica'
p18
atp19
bsS'data_strain'
p20
(lp21
(dp22
S'reporte'
p23
VHeadache is real, but relaxed for sure, my eyes are really red. But like I\u2019m high so
p24
sS'efectos'
p25
(lp26
S'Relaxed'
p27
aS'Dry Eyes'
p28
aS'Headache'
p29
asS'sabores'
p30
(lp31
S'Chemical'
p32
aS'Chestnut'
p33
asS'usuario'
p34
VGracieyKay
p35
sas.