(dp0
S'strain'
p1
S'lemon-marmalade'
p2
sS'categorias'
p3
cnumpy.core.multiarray
_reconstruct
p4
(cnumpy
ndarray
p5
(I0
tp6
S'b'
p7
tp8
Rp9
(I1
(I1
tp10
cnumpy
dtype
p11
(S'O8'
p12
I0
I1
tp13
Rp14
(I3
S'|'
p15
NNNI-1
I-1
I63
tp16
bI00
(lp17
S'Hybrid'
p18
atp19
bsS'data_strain'
p20
(lp21
(dp22
S'reporte'
p23
VLove this strain.
p24
sS'efectos'
p25
(lp26
S'Euphoric'
p27
asS'sabores'
p28
(lp29
S'Lemon'
p30
asS'usuario'
p31
Vlovuly1
p32
sa(dp33
g23
VBy far my favorite strain of all time! \u000a\u000aI had a friend introduce me to help with anxiety and it took me over a year to find it again. This is my go to daily strain. Keeps me focused enough to get stuff done during the day but it also doesn\u2019t get me so energized I can\u2019t sleep at night. \u000a\u000aSo happy to find it back in my area! 
p34
sg25
(lp35
S'Aroused'
p36
aS'Energetic'
p37
aS'Focused'
p38
aS'Giggly'
p39
aS'Happy'
p40
aS'Sleepy'
p41
aS'Uplifted'
p42
aS'Dry Mouth'
p43
asg28
(lp44
g30
asg31
Vbgritz
p45
sa(dp46
g23
VNice high very low cottonmouth  #202
p47
sg25
(lp48
g37
ag27
ag38
aS'Relaxed'
p49
aS'Talkative'
p50
ag42
asg28
(lp51
g30
aS'Tropical'
p52
asg31
VLoudLov3r
p53
sa(dp54
g23
VThis is my favorite strain for everyday use. Great strain for euphoria. pain manager and appetite stimulation. Problem is I can&#39;t find it anywhere in the Lis Angeles basin. I&#39;d drive a hundred miles for an ounce of the real Lemon Marmalade. Anyone know where to get it? Please let me know. I&#39;ll even buy an 1/8 for anyone able to assist me. \u000a\u000aCraig\u000aCraigfeds@gmail.com\u000a\u000a
p55
sg25
(lp56
sg28
(lp57
g30
asg31
Vcraigfeds
p58
sa(dp59
g23
Vwent like gangbusters after medicating via portable vape. quickly settled into a more lethargic mode. yummy Lemon Marmalade delivers great results whether using for medicinal or recreational it rocks!
p60
sg25
(lp61
g36
aS'Creative'
p62
ag37
ag27
ag38
ag42
ag43
asg28
(lp63
S'Flowery'
p64
aS'Honey'
p65
ag30
aS'Sage'
p66
aS'Sweet'
p67
aS'Tree'
p68
aS'Fruit'
p69
asg31
Vsurfingramps
p70
sas.