(dp0
S'strain'
p1
S'magnum'
p2
sS'categorias'
p3
cnumpy.core.multiarray
_reconstruct
p4
(cnumpy
ndarray
p5
(I0
tp6
S'b'
p7
tp8
Rp9
(I1
(I1
tp10
cnumpy
dtype
p11
(S'O8'
p12
I0
I1
tp13
Rp14
(I3
S'|'
p15
NNNI-1
I-1
I63
tp16
bI00
(lp17
S'Hybrid'
p18
atp19
bsS'data_strain'
p20
(lp21
(dp22
S'reporte'
p23
VEh
p24
sS'efectos'
p25
(lp26
sS'sabores'
p27
(lp28
sS'usuario'
p29
Vvadim3272
p30
sa(dp31
g23
V12 semanas  y 40-50g promedio. sabor y aroma a lim&#243;n y herbal. subid&#243;n instant&#225;neo, muy energ&#233;tico y cerebral.  sensaciones generales: en&#233;rgico, Alegre, enfocado, sociable, positivo.
p32
sg25
(lp33
S'Energetic'
p34
aS'Euphoric'
p35
aS'Focused'
p36
aS'Happy'
p37
aS'Talkative'
p38
aS'Uplifted'
p39
asg27
(lp40
S'Lemon'
p41
aS'Pine'
p42
aS'Spicy/Herbal'
p43
asg29
VSolivagante
p44
sa(dp45
g23
VConcuerdo, demasiado 
p46
sg25
(lp47
sg27
(lp48
sg29
Vantoymaxi
p49
sa(dp50
g23
VRolled a fat backwood, got me and my friends pretty faded. I recommend 
p51
sg25
(lp52
sg27
(lp53
sg29
Vmilesfench
p54
sa(dp55
g23
VI just tried this strain for the first time and I absolutely love it! one of my favorite daytime strains. Very, happy, content high. 
p56
sg25
(lp57
sg27
(lp58
sg29
Vannab33
p59
sa(dp60
g23
VThe high was fun, starting with a period of losing time for about an hour and forgetting how to talk or walk. Then it was an energizing, uplifting effect for a few hours. The taste was great, kind of peppery. Only down side is the auto strain doesn&#39;t grow much and I get 4 to 10 grams per harvested plant. So it is an exotic that I break out from time to time but stick with growing the big boys for more yield and daily medicating.
p61
sg25
(lp62
g34
ag39
aS'Dizzy'
p63
aS'Dry Mouth'
p64
asg27
(lp65
S'Pepper'
p66
ag43
asg29
Vcamponelli4ganja
p67
sa(dp68
g23
VSmooth strain, not perfect, but really good\u000a\u000a
p69
sg25
(lp70
g34
aS'Hungry'
p71
ag38
ag39
ag64
asg27
(lp72
sg29
VJangoFett
p73
sa(dp74
g23
Vnice grow exprience! high flavour n big uniform buds! 
p75
sg25
(lp76
sg27
(lp77
sg29
Vhid
p78
sa(dp79
g23
VTuo asunto numero 5. olisi todella juuri sellainen kun etsin.  Erityisen t&#228;rkeit&#228; ovat oma terassi ja puutarha, meren l&#228;heisyys , wifi, hyv&#228;t julkiset kulkuyhteydet ja ennen kaikkea se, ettei asunnossa ole ollut kosteusvauriota ja/tai hometta.\u000a\u000aIlmoituksen mukaan asunto ei kuitenkaan ole vapaana talveksi, jolloin sit&#228; tarvitsen. Tarvitsen asunnon syyskuun - lokakuun alusta l&#228;htien aina touko - kes&#228;kuuhun saakka. (Riippuen sopimuksesta)\u000a\u000aJos asunto on vapaana ensi talveksi,niin otan sen.\u000a
p80
sg25
(lp81
g35
ag37
aS'Relaxed'
p82
ag39
aS'Dry Eyes'
p83
ag64
aS'Paranoid'
p84
asg27
(lp85
S'Citrus'
p86
aS'Earthy'
p87
aS'Woody'
p88
asg29
VEvenray
p89
sa(dp90
g23
VPretty &quot;dope.&quot; Basically, the effects were: chill, but not couch lock chilled, but you&#39;re definitely still a potato. Herb had an inner commentary running in my mind with a detached, laid back sense of amusement. Little time warpy. I would say this is a good evening smoke- you can still function but your eyes are going to get droopy and your mind might start to get loopy- more in the mad hatter variety. Yet, strangely enough, still a very &quot;clean&quot; or &quot;clear&quot; head high accompanied with a nice very mild body high- a slight, gentle buzz. Magnum is ace for treating anxiety/stress. No side effects but for perhaps dry eyes.  *Edit- I feel a little like melting wax. . . So, okay, this strain is a little trippy- but in a relaxed transfixed state- so a good melty. Long story short, I recommend the melt- very calming, peaceful- definitely feel like this strain could do wonders while enjoyed in nature. Those with anxiety, depression, stress, PTSD would do well with this strain.
p91
sg25
(lp92
S'Creative'
p93
ag37
ag82
aS'Sleepy'
p94
ag38
aS'Tingly'
p95
ag83
asg27
(lp96
g87
aS'Flowery'
p97
aS'Pungent'
p98
ag88
asg29
VComaByKittens
p99
sa(dp100
g23
VAbsolutely underrated five star sativa dominant hybrid! You can feel sative effects from beginning to end, at the end you can feel a little bit indica effects. Totaly clear, talkative, energetic high. I really love it.
p101
sg25
(lp102
g93
ag34
ag36
ag37
ag71
ag38
ag83
asg27
(lp103
sg29
Vsarcaviol
p104
sa(dp105
g23
VVery good strain. It&#39;s woody, spicy, a very good smell and flavor. I called friends to smoke it together, everyone loved it, we stood for minutes only laughing. I would recommend its smoke for going out, having fun, you definitely will not want to stay at the same place while smoking this.\u000a\u000aHowever after a couple of grams during the the day, you&#39;ll notice the cdb, very relaxing and anti anxiety strain. \u000aNice to plant too.
p106
sg25
(lp107
g93
ag34
ag35
ag37
ag82
ag38
ag39
asg27
(lp108
g86
ag41
aS'Menthol'
p109
aS'Orange'
p110
ag66
aS'Tropical'
p111
ag88
asg29
VSpinozaBR
p112
sa(dp113
g23
VVery energetic, I laughed more than usual.
p114
sg25
(lp115
g93
ag34
ag35
ag37
ag71
ag38
asg27
(lp116
sg29
VFumaca
p117
sa(dp118
g23
VExcelente para re&#237;r y compartir, pero con mucha agua en la mano!!!! Jajaja
p119
sg25
(lp120
sg27
(lp121
sg29
VDagredap
p122
sa(dp123
g23
VA promessa &#233; grande.
p124
sg25
(lp125
sg27
(lp126
sg29
VGuidini
p127
sa(dp128
g23
VI found Magnum to be more like a chronic type herb. Very relaxing, and it will get you through the day. If you&#39;re going to buy regular, you might as well put in a little bit more and by this strain. I usually combine high quality medicinal buds and alternate between those and a more regular type strain like this one. Magnum is good for a mid-gade bud.
p129
sg25
(lp130
g71
ag82
ag94
asg27
(lp131
S'Chestnut'
p132
aS'Coffee'
p133
ag66
aS'Sage'
p134
ag88
asg29
VCannabisExpert
p135
sa(dp136
g23
VRudelaris is not my favorite but this one is special \u000a
p137
sg25
(lp138
g34
ag71
ag38
asg27
(lp139
g97
ag41
asg29
Vanaskela
p140
sa(dp141
g23
VLa autofloreciente m&#225;s sobrevalorada de la historia. M&#225;s no significa calidad.
p142
sg25
(lp143
sg27
(lp144
sg29
Vj04o
p145
sas.