(dp0
S'strain'
p1
S'merlot-og'
p2
sS'categorias'
p3
cnumpy.core.multiarray
_reconstruct
p4
(cnumpy
ndarray
p5
(I0
tp6
S'b'
p7
tp8
Rp9
(I1
(I1
tp10
cnumpy
dtype
p11
(S'O8'
p12
I0
I1
tp13
Rp14
(I3
S'|'
p15
NNNI-1
I-1
I63
tp16
bI00
(lp17
S'Indica'
p18
atp19
bsS'data_strain'
p20
(lp21
(dp22
S'reporte'
p23
Vhad me feeling mellow and euphoric, and happy, touch felt really good. some tingling  sensation and good for muscle aches other back pain. defintely a keeper. tastes really good, not too harsh. 
p24
sS'efectos'
p25
(lp26
S'Aroused'
p27
aS'Euphoric'
p28
aS'Giggly'
p29
aS'Happy'
p30
aS'Relaxed'
p31
aS'Sleepy'
p32
aS'Tingly'
p33
aS'Uplifted'
p34
aS'Dry Eyes'
p35
aS'Dry Mouth'
p36
asS'sabores'
p37
(lp38
S'Butter'
p39
aS'Earthy'
p40
aS'Pungent'
p41
aS'Skunk'
p42
aS'Woody'
p43
asS'usuario'
p44
Varreolaj13
p45
sas.