(dp0
S'strain'
p1
S'milf'
p2
sS'categorias'
p3
cnumpy.core.multiarray
_reconstruct
p4
(cnumpy
ndarray
p5
(I0
tp6
S'b'
p7
tp8
Rp9
(I1
(I1
tp10
cnumpy
dtype
p11
(S'O8'
p12
I0
I1
tp13
Rp14
(I3
S'|'
p15
NNNI-1
I-1
I63
tp16
bI00
(lp17
S'Hybrid'
p18
atp19
bsS'data_strain'
p20
(lp21
(dp22
S'reporte'
p23
VI&#39;ve heard wonderful things about this strain, but after smoking it, can&#39;t say it&#39;s a strain I&#39;d ever opt for again. Not a fan of the sedating, &quot;sleepy&quot;  strains...
p24
sS'efectos'
p25
(lp26
S'Euphoric'
p27
aS'Giggly'
p28
aS'Happy'
p29
aS'Hungry'
p30
aS'Relaxed'
p31
aS'Sleepy'
p32
aS'Tingly'
p33
aS'Uplifted'
p34
aS'Dry Mouth'
p35
asS'sabores'
p36
(lp37
S'Earthy'
p38
asS'usuario'
p39
VStaticIII
p40
sa(dp41
g23
VSuper mind awakening and energy! Maybe a little too much (maybe my add get excited with this one). Nice fun happy high. Not much body effects. Love this new strain. Happy to have it in the Burgh. 
p42
sg25
(lp43
S'Energetic'
p44
ag27
ag28
ag29
aS'Talkative'
p45
ag34
aS'Dizzy'
p46
aS'Dry Eyes'
p47
asg36
(lp48
sg39
VMyJokerHandStayLIT
p49
sa(dp50
g23
Vi love milf,make me horny&#128521;
p51
sg25
(lp52
g29
ag45
asg36
(lp53
S'Sweet'
p54
asg39
VRoya
p55
sas.