(dp0
S'strain'
p1
S'misty-kush'
p2
sS'categorias'
p3
cnumpy.core.multiarray
_reconstruct
p4
(cnumpy
ndarray
p5
(I0
tp6
S'b'
p7
tp8
Rp9
(I1
(I1
tp10
cnumpy
dtype
p11
(S'O8'
p12
I0
I1
tp13
Rp14
(I3
S'|'
p15
NNNI-1
I-1
I63
tp16
bI00
(lp17
S'Indica'
p18
atp19
bsS'data_strain'
p20
(lp21
(dp22
S'reporte'
p23
VVery nice strain, could be one of my favorite indica. DEEP body relaxation, not a lazy one though, doesn&#39;t knock you out right away but definitely takes the muscle/joint pain away. Very creative and peaceful, very lovely. Recommend for anyone with pain physically or mentally
p24
sS'efectos'
p25
(lp26
S'Creative'
p27
aS'Euphoric'
p28
aS'Happy'
p29
aS'Relaxed'
p30
aS'Uplifted'
p31
aS'Dry Mouth'
p32
asS'sabores'
p33
(lp34
S'Apple'
p35
aS'Pungent'
p36
aS'Skunk'
p37
aS'Sweet'
p38
asS'usuario'
p39
Vlushesgreens
p40
sa(dp41
g23
VGreat strain 
p42
sg25
(lp43
sg33
(lp44
sg39
V420MACK
p45
sa(dp46
g23
VGood
p47
sg25
(lp48
g28
ag29
ag30
asg33
(lp49
sg39
VJesDee
p50
sa(dp51
g23
VThe best yet.
p52
sg25
(lp53
g28
aS'Focused'
p54
ag29
asg33
(lp55
sg39
VgodfatherTyler
p56
sa(dp57
g23
Vit&#39;s not the best weed i try -,-
p58
sg25
(lp59
g27
ag28
ag31
aS'Dizzy'
p60
aS'Headache'
p61
aS'Paranoid'
p62
asg33
(lp63
sg39
VAnonymous
p64
sa(dp65
g23
VVery solid strain, definitely in my top 5
p66
sg25
(lp67
sg33
(lp68
sg39
V420oilsame
p69
sa(dp70
g23
VGreat strain!
p71
sg25
(lp72
g29
ag30
asg33
(lp73
S'Mango'
p74
ag38
asg39
Vleobt
p75
sas.