(dp0
S'strain'
p1
S'moon-cookies'
p2
sS'categorias'
p3
cnumpy.core.multiarray
_reconstruct
p4
(cnumpy
ndarray
p5
(I0
tp6
S'b'
p7
tp8
Rp9
(I1
(I1
tp10
cnumpy
dtype
p11
(S'O8'
p12
I0
I1
tp13
Rp14
(I3
S'|'
p15
NNNI-1
I-1
I63
tp16
bI00
(lp17
S'Hybrid'
p18
atp19
bsS'data_strain'
p20
(lp21
(dp22
S'reporte'
p23
VSmells good, tastes good, high&#39;s great. Totally satisfied.
p24
sS'efectos'
p25
(lp26
sS'sabores'
p27
(lp28
sS'usuario'
p29
VSpeedie099
p30
sa(dp31
g23
VMe being a huge fan of GSC made picking up this strain very simple and easy. You can expect all of the GSC effects but literally x2
p32
sg25
(lp33
sg27
(lp34
sg29
VMitchellandFinese
p35
sa(dp36
g23
VLovely aroma...amazing high.
p37
sg25
(lp38
sg27
(lp39
sg29
VBrod911
p40
sa(dp41
g23
VBeautiful and tasty buds. Love how these look and definite cookie effects. Start slow...hits hard.
p42
sg25
(lp43
S'Happy'
p44
asg27
(lp45
sg29
Vbibuds
p46
sa(dp47
g23
VAnything crossed with GSC is always good flower! Double crossed GSC definitely a smooth creeper. 
p48
sg25
(lp49
S'Creative'
p50
aS'Focused'
p51
aS'Hungry'
p52
asg27
(lp53
S'Earthy'
p54
asg29
VCeeB8
p55
sa(dp56
g23
VNot my favorite strain but it looks pretty nice!
p57
sg25
(lp58
sg27
(lp59
sg29
Vcharliebell95
p60
sa(dp61
g23
Vone of the happiest highs I&#39;ve ever experienced no paranoia also good aphrodisiac
p62
sg25
(lp63
S'Aroused'
p64
aS'Euphoric'
p65
ag51
ag44
ag52
aS'Relaxed'
p66
asg27
(lp67
S'Flowery'
p68
aS'Mint'
p69
aS'Spicy/Herbal'
p70
asg29
VDapperdan206
p71
sa(dp72
g23
VThca: 23.1% Thc: 21.7% Cbd: 0.1% total cannabinoids: 25.7%, From Head Light. Taste is grassy/earthy for sure, might just be my new favorite greens. 
p73
sg25
(lp74
g66
asg27
(lp75
g54
aS'Sage'
p76
aS'Tar'
p77
asg29
Vmontoure777
p78
sas.