(dp0
S'strain'
p1
S'motavation'
p2
sS'categorias'
p3
cnumpy.core.multiarray
_reconstruct
p4
(cnumpy
ndarray
p5
(I0
tp6
S'b'
p7
tp8
Rp9
(I1
(I1
tp10
cnumpy
dtype
p11
(S'O8'
p12
I0
I1
tp13
Rp14
(I3
S'|'
p15
NNNI-1
I-1
I63
tp16
bI00
(lp17
S'Indica'
p18
atp19
bsS'data_strain'
p20
(lp21
(dp22
S'reporte'
p23
Vthis strain made me tired and depressed.  I wouldn&#39;t pay a dollar a gram for  it.
p24
sS'efectos'
p25
(lp26
S'Relaxed'
p27
aS'Anxious'
p28
aS'Dizzy'
p29
aS'Dry Eyes'
p30
aS'Paranoid'
p31
asS'sabores'
p32
(lp33
S'Flowery'
p34
aS'Skunk'
p35
aS'Sweet'
p36
asS'usuario'
p37
VRottenHead
p38
sa(dp39
g23
VGood strain liked the taste, didn&#39;t give me anxiety and was a very happy chill high
p40
sg25
(lp41
sg32
(lp42
sg37
VJohnnyF
p43
sa(dp44
g23
Vo.k. what&#39;s with the awesome chemical diesel fruit whiffs? only 3 weeks into flowers and it already smells like the best shit I&#39;ve ever been involved with. will be a late January one. blue cheese early January and motavation late January. 2017 is gonna rule. -El Kevo
p45
sg25
(lp46
S'Creative'
p47
ag30
aS'Dry Mouth'
p48
asg32
(lp49
S'Chemical'
p50
aS'Diesel'
p51
ag34
aS'Pine'
p52
aS'Pungent'
p53
ag36
asg37
VEl420Kevo
p54
sa(dp55
g23
VOne of the best indica dominant hybrid strains. Is a current favorite. Covered in trichomes with massive calyxs,  smells like a skunky pine/sweetish darker green slightly purple buds with red hairs . Great stuff anytime!
p56
sg25
(lp57
sg32
(lp58
sg37
Vdropdown710
p59
sas.