(dp0
S'strain'
p1
S'nicole-kush'
p2
sS'categorias'
p3
cnumpy.core.multiarray
_reconstruct
p4
(cnumpy
ndarray
p5
(I0
tp6
S'b'
p7
tp8
Rp9
(I1
(I1
tp10
cnumpy
dtype
p11
(S'O8'
p12
I0
I1
tp13
Rp14
(I3
S'|'
p15
NNNI-1
I-1
I63
tp16
bI00
(lp17
S'Indica'
p18
atp19
bsS'data_strain'
p20
(lp21
(dp22
S'reporte'
p23
Vyeah man I liked young Nicole man, she was hot and she had some tight dense bewbage with a piney/woody nose that when not musky, was Definetly lemony. definite 10/10 strain all round. peace -El Kevo
p24
sS'efectos'
p25
(lp26
S'Euphoric'
p27
aS'Giggly'
p28
aS'Relaxed'
p29
aS'Sleepy'
p30
aS'Dry Mouth'
p31
asS'sabores'
p32
(lp33
S'Lemon'
p34
aS'Pine'
p35
aS'Pungent'
p36
aS'Woody'
p37
asS'usuario'
p38
VEl420Kevo
p39
sa(dp40
g23
VMadur&#225;ndola algo mas de lo normal cambia a un color azulado, completamente llena de resina, una pasada.. un olor fuerte a kush al fumarla que llena la boca por completo y dura mucho tiempo su sabor. Un subid&#243;n muy indico y relajante de larga duraci&#243;n. Su cultivo fue muy f&#225;cil de verdad, siendo una planta que tolera dosis muy altas de EC y que es una gran productora. Un 10. 
p41
sg25
(lp42
S'Happy'
p43
ag29
ag30
asg32
(lp44
S'Earthy'
p45
asg38
Vcarcoma
p46
sa(dp47
g23
Vabsolutely love this bud great for a night time smoke
p48
sg25
(lp49
sg32
(lp50
sg38
VJonpowley
p51
sa(dp52
g23
VIn this grow will report
p53
sg25
(lp54
sg32
(lp55
sg38
VDrMota
p56
sa(dp57
g23
VGot 1 Free Nicole Kush x Morracan Fem seed with this order. Germ in 2 x 2 Friday cube. Will follow up with review when done
p58
sg25
(lp59
sg32
(lp60
sg38
VDrMota
p61
sa(dp62
g23
VGot 1 Free Nicole Kush x Morracan Fem seed with this order. Germ in 2 x 2 Friday cube. Will follow up with review when done
p63
sg25
(lp64
sg32
(lp65
sg38
VDrMota
p66
sas.