(dp0
S'strain'
p1
S'ogs-pearl'
p2
sS'categorias'
p3
cnumpy.core.multiarray
_reconstruct
p4
(cnumpy
ndarray
p5
(I0
tp6
S'b'
p7
tp8
Rp9
(I1
(I1
tp10
cnumpy
dtype
p11
(S'O8'
p12
I0
I1
tp13
Rp14
(I3
S'|'
p15
NNNI-1
I-1
I63
tp16
bI00
(lp17
S'Indica'
p18
atp19
bsS'data_strain'
p20
(lp21
(dp22
S'reporte'
p23
VVery relaxing &amp; tastey
p24
sS'efectos'
p25
(lp26
S'Relaxed'
p27
aS'Uplifted'
p28
asS'sabores'
p29
(lp30
S'Earthy'
p31
asS'usuario'
p32
VJackiedayyy
p33
sa(dp34
g23
VHas a great aroma, what we tried was very earthy. Amazing if you like sweet back hit on your tongue. There was a good focused head high, and the body night was very light. Eliminated chronic back pain immediately, but it was not too heavy like other hybrids. 
p35
sg25
(lp36
sg29
(lp37
S'Pear'
p38
asg32
Vchris99102
p39
sa(dp40
g23
VI found this strain perfect for sleeping. I felt an instant relaxation of my body. Found it perfect for lazy days or before bed, also got munchies haha.\u000a\u000a
p41
sg25
(lp42
S'Euphoric'
p43
aS'Giggly'
p44
aS'Happy'
p45
aS'Hungry'
p46
aS'Sleepy'
p47
asg29
(lp48
g38
asg32
Vmarjanesy
p49
sa(dp50
g23
VGood indica type high. Decent smell and taste, relaxing
p51
sg25
(lp52
g45
ag46
ag27
ag47
asg29
(lp53
g38
asg32
VATLien42
p54
sa(dp55
g23
VGood taste if you like a sweet back hit on your tongue. Amazing aroma and 
p56
sg25
(lp57
sg29
(lp58
g38
asg32
Vchris99102
p59
sa(dp60
g23
VThis an awesome strain to chill out in bed and watch a movie before going to sleep. Total body relaxing and euphoric feeling.
p61
sg25
(lp62
g43
ag45
ag27
ag47
aS'Tingly'
p63
aS'Dry Eyes'
p64
aS'Dry Mouth'
p65
asg29
(lp66
g38
asg32
VDapperdan206
p67
sas.