(dp0
S'strain'
p1
S'old-school-og'
p2
sS'categorias'
p3
cnumpy.core.multiarray
_reconstruct
p4
(cnumpy
ndarray
p5
(I0
tp6
S'b'
p7
tp8
Rp9
(I1
(I1
tp10
cnumpy
dtype
p11
(S'O8'
p12
I0
I1
tp13
Rp14
(I3
S'|'
p15
NNNI-1
I-1
I63
tp16
bI00
(lp17
S'Hybrid'
p18
atp19
bsS'data_strain'
p20
(lp21
(dp22
S'reporte'
p23
VThis is my favorite strain, very distinct taste and smell. I see why it&#39;s also called pure kush. 
p24
sS'efectos'
p25
(lp26
S'Happy'
p27
aS'Relaxed'
p28
aS'Sleepy'
p29
aS'Dry Eyes'
p30
aS'Paranoid'
p31
asS'sabores'
p32
(lp33
S'Citrus'
p34
aS'Earthy'
p35
aS'Lemon'
p36
aS'Pungent'
p37
aS'Skunk'
p38
asS'usuario'
p39
Vkingiv
p40
sas.