(dp0
S'strain'
p1
S'orange-turbo'
p2
sS'categorias'
p3
cnumpy.core.multiarray
_reconstruct
p4
(cnumpy
ndarray
p5
(I0
tp6
S'b'
p7
tp8
Rp9
(I1
(I1
tp10
cnumpy
dtype
p11
(S'O8'
p12
I0
I1
tp13
Rp14
(I3
S'|'
p15
NNNI-1
I-1
I63
tp16
bI00
(lp17
S'Hybrid'
p18
atp19
bsS'data_strain'
p20
(lp21
(dp22
S'reporte'
p23
VNice, comfortable, easy high. Great for video games and easing stress.
p24
sS'efectos'
p25
(lp26
sS'sabores'
p27
(lp28
S'Orange'
p29
asS'usuario'
p30
VSativaSunday
p31
sa(dp32
g23
VReally heady high that hits immediately but never too hard or for too long. Aromatically citrus-y, and does taste nice and sweet compared to most other strains. But it burns far too quickly and for less potency, less plateau time. As such, while I won&#39;t have it often, I do think it is great for daytime use requiring energy and focus; I just personally didn&#39;t enjoy how quickly I smoked through this. Not cost-efficient.
p33
sg25
(lp34
S'Aroused'
p35
aS'Energetic'
p36
aS'Focused'
p37
aS'Happy'
p38
aS'Uplifted'
p39
asg27
(lp40
S'Citrus'
p41
ag29
aS'Sweet'
p42
asg30
VSlothcupine
p43
sa(dp44
g23
Vsweet
p45
sg25
(lp46
sg27
(lp47
g29
asg30
Vgetburnt420
p48
sas.