(dp0
S'strain'
p1
S'orange-juice'
p2
sS'categorias'
p3
cnumpy.core.multiarray
_reconstruct
p4
(cnumpy
ndarray
p5
(I0
tp6
S'b'
p7
tp8
Rp9
(I1
(I1
tp10
cnumpy
dtype
p11
(S'O8'
p12
I0
I1
tp13
Rp14
(I3
S'|'
p15
NNNI-1
I-1
I63
tp16
bI00
(lp17
S'Hybrid'
p18
atp19
bsS'data_strain'
p20
(lp21
(dp22
S'reporte'
p23
VThis strain is awesome!  fantastic to wake up in the morning an tastes just like orange juice. The strain is good all day you won&#39;t want to stop smoking it it tastes that good
p24
sS'efectos'
p25
(lp26
S'Aroused'
p27
aS'Creative'
p28
aS'Energetic'
p29
aS'Giggly'
p30
aS'Happy'
p31
aS'Talkative'
p32
asS'sabores'
p33
(lp34
S'Citrus'
p35
aS'Orange'
p36
asS'usuario'
p37
Vdirtydeedz2015
p38
sa(dp39
g23
Vhonestly people....this is better than &quot;advertised&quot;.\u000a#staymedicated#hybrid\u000a#indica 
p40
sg25
(lp41
S'Relaxed'
p42
ag32
aS'Uplifted'
p43
asg33
(lp44
g36
asg37
VCyberSmoker
p45
sa(dp46
g23
VNice, Focused High...a little energetic...Nice High 4:20
p47
sg25
(lp48
sg33
(lp49
g36
asg37
VJloSmokey
p50
sa(dp51
g23
VWas lucky enough to get a lil bit if this live resin in and ooh man it is fantastic. Tastes like orange lemon Pledge but a lil sweeter. The euphoric body high and clear headed stoned make this one of my favorite strains 
p52
sg25
(lp53
g28
aS'Euphoric'
p54
ag31
ag42
ag32
aS'Tingly'
p55
ag43
asg33
(lp56
g35
aS'Lemon'
p57
ag36
aS'Spicy/Herbal'
p58
aS'Sweet'
p59
asg37
VNater_ade
p60
sa(dp61
g23
Vvery good strain. my favorite &quot;orange strain&quot;. the smell is very sweet with a suttle smell of orange peels. i expected it to have a more citrus like aroma to it, but the name Orange Juice fits it just right. i would recommend the strain to any consumer that enjoys distinctive buds.\u000a
p62
sg25
(lp63
g54
ag30
ag31
ag32
ag43
asg33
(lp64
g36
aS'Pungent'
p65
ag59
asg37
VJayLew
p66
sa(dp67
g23
VI found this slightly underwhelming. I was excited about trying it having heard how unique the taste was, but the orange flavour which came out of my volcano was weak and the vapour thin. The flowers looked decent, smell was meh.\u000a\u000aHigh was an average indica high, didn&#39;t last very long and couldn&#39;t help put me to sleep.\u000a\u000aI would probably not buy this again.
p68
sg25
(lp69
g31
ag42
asg33
(lp70
g35
ag36
asg37
Vnickk732
p71
sa(dp72
g23
VExceptional flavor and aroma, uplifting high 5 stars across the board 
p73
sg25
(lp74
sg33
(lp75
g36
asg37
V5154204Lyfe
p76
sa(dp77
g23
VRipped my bros fresh new cream bong got fuckin ripped 
p78
sg25
(lp79
g31
ag43
asg33
(lp80
g35
ag36
asg37
ViSmokeMore
p81
sa(dp82
g23
Vcitrusy, gets me relaxed and chill
p83
sg25
(lp84
S'Hungry'
p85
ag42
aS'Sleepy'
p86
aS'Dry Eyes'
p87
asg33
(lp88
g36
asg37
Vhawaiianmama
p89
sa(dp90
g23
Vprobably one of the best strains I\u2019ve had! Reminds me of back in the day smoking Cali orange! Great relaxed high, really dry mouth and heavy eyes! 
p91
sg25
(lp92
g54
ag31
ag85
ag42
ag86
ag55
ag43
aS'Dizzy'
p93
ag87
aS'Dry Mouth'
p94
aS'Paranoid'
p95
asg33
(lp96
g35
aS'Flowery'
p97
ag57
ag36
ag65
ag59
aS'Tropical'
p98
aS'Woody'
p99
asg37
Vjoelewis1996
p100
sa(dp101
g23
VNice relaxed high. Fresh orange peel taste. Nice and mellow, relaxing if you\u2019re just tryna chill. Day or night.
p102
sg25
(lp103
sg33
(lp104
g36
asg37
Veelaynam
p105
sa(dp106
g23
VFantastic strain with an amazing citrusy flavor profile and powerful indica effects.
p107
sg25
(lp108
g55
asg33
(lp109
g35
ag36
ag59
asg37
Vmcfrontalot
p110
sa(dp111
g23
VVery sweet, citrusy...smooth high!
p112
sg25
(lp113
g28
ag29
ag54
ag42
ag43
asg33
(lp114
g35
ag36
ag59
asg37
VJloSmokey
p115
sa(dp116
g23
VDynamite comes in small packages! I love Squib! But people please, don&#39;t eat the whole thing at once like a nitwit and ruin it for the rest of us!
p117
sg25
(lp118
sg33
(lp119
g36
asg37
VCherryMcgee
p120
sa(dp121
g23
VVery spicy, and aromatic. Citrus taste on the back-in. Long high, like most kush strains. Highly recommended. 
p122
sg25
(lp123
S'Focused'
p124
ag42
asg33
(lp125
g35
asg37
VSupa21High
p126
sa(dp127
g23
VPerfect 
p128
sg25
(lp129
sg33
(lp130
g36
asg37
Vtattoo72
p131
sa(dp132
g23
Vme and my ex smoked it one night and it got us so relaxed that we had sex 6 times without stopping, well except for a cigarette break lol. I loved it but I will never smoke alot of it in one night lol.
p133
sg25
(lp134
g27
asg33
(lp135
g36
asg37
VBabygirl93
p136
sa(dp137
g23
Vgg
p138
sg25
(lp139
sg33
(lp140
g36
asg37
Vrocketman12333
p141
sas.