(dp0
S'strain'
p1
S'oregon-pinot-noir'
p2
sS'categorias'
p3
cnumpy.core.multiarray
_reconstruct
p4
(cnumpy
ndarray
p5
(I0
tp6
S'b'
p7
tp8
Rp9
(I1
(I1
tp10
cnumpy
dtype
p11
(S'O8'
p12
I0
I1
tp13
Rp14
(I3
S'|'
p15
NNNI-1
I-1
I63
tp16
bI00
(lp17
S'Sativa'
p18
atp19
bsS'data_strain'
p20
(lp21
(dp22
S'reporte'
p23
VI don&#39;t know how this is a sativa. The effects feel much more like an indica or indica-dominant hybrid, with couch lock and a relaxing body high. I like it, but wouldn&#39;t use it if I need to get things done.
p24
sS'efectos'
p25
(lp26
S'Euphoric'
p27
aS'Happy'
p28
aS'Relaxed'
p29
aS'Tingly'
p30
aS'Uplifted'
p31
aS'Dry Mouth'
p32
asS'sabores'
p33
(lp34
S'Flowery'
p35
aS'Sweet'
p36
asS'usuario'
p37
Vsweethams
p38
sa(dp39
g23
VThese are the most purple buds I&#39;ve ever seen.  Love the taste, love the high.   This is a memorable strain
p40
sg25
(lp41
sg33
(lp42
sg37
VEugeneOGs
p43
sa(dp44
g23
VLove it \u000a
p45
sg25
(lp46
S'Energetic'
p47
ag28
aS'Hungry'
p48
ag31
asg33
(lp49
S'Grape'
p50
aS'Pungent'
p51
asg37
VTylerE
p52
sa(dp53
g23
Vamazing head high like haze
p54
sg25
(lp55
S'Creative'
p56
ag47
aS'Dizzy'
p57
asg33
(lp58
S'Mint'
p59
aS'Tobacco'
p60
aS'Violet'
p61
asg37
VBennx131
p62
sas.