(dp0
S'strain'
p1
S'organic-diesel'
p2
sS'categorias'
p3
cnumpy.core.multiarray
_reconstruct
p4
(cnumpy
ndarray
p5
(I0
tp6
S'b'
p7
tp8
Rp9
(I1
(I1
tp10
cnumpy
dtype
p11
(S'O8'
p12
I0
I1
tp13
Rp14
(I3
S'|'
p15
NNNI-1
I-1
I63
tp16
bI00
(lp17
S'Hybrid'
p18
atp19
bsS'data_strain'
p20
(lp21
(dp22
S'reporte'
p23
VBeautiful strain. Light and airy but still a little dense. The smell and taste are sweet/ earthy like a diesel should be. great long lasting high as well, recommend for going out or just relaxing
p24
sS'efectos'
p25
(lp26
S'Energetic'
p27
aS'Euphoric'
p28
aS'Happy'
p29
aS'Relaxed'
p30
aS'Uplifted'
p31
asS'sabores'
p32
(lp33
S'Diesel'
p34
aS'Earthy'
p35
aS'Pungent'
p36
aS'Sweet'
p37
asS'usuario'
p38
VFapMaster420
p39
sa(dp40
g23
Vlight airy but still tight. .light green tasty wonderful social talking etc. .good for the boat. .enjoy your summer 
p41
sg25
(lp42
g28
aS'Focused'
p43
aS'Giggly'
p44
ag29
ag30
aS'Talkative'
p45
ag31
aS'Dry Mouth'
p46
asg32
(lp47
S'Chemical'
p48
ag34
ag36
asg38
Vgatorhunts420
p49
sa(dp50
g23
Vodd after-taste, very good happy high.  I would buy again.
p51
sg25
(lp52
S'Aroused'
p53
aS'Creative'
p54
ag28
ag29
ag45
aS'Dizzy'
p55
aS'Dry Eyes'
p56
aS'Paranoid'
p57
asg32
(lp58
g34
asg38
Vnerak
p59
sa(dp60
g23
VHits very fast! Fantastic for being out and about!
p61
sg25
(lp62
g54
ag27
ag28
ag43
ag29
ag30
ag45
ag31
asg32
(lp63
g34
ag36
aS'Skunk'
p64
asg38
VTheFuzz
p65
sa(dp66
g23
VWHERE to buy this, please?!?\u000aNear Orange County CA
p67
sg25
(lp68
sg32
(lp69
g34
asg38
V2BLISS
p70
sa(dp71
g23
VMelted my brain. Good for sitting outside and doing nothing on a nice day, very heavy head and body high though.
p72
sg25
(lp73
g28
ag30
aS'Tingly'
p74
asg32
(lp75
g48
ag34
ag35
aS'Woody'
p76
asg38
VFapMaster420
p77
sa(dp78
g23
VI was somewhat sceptical about this strain because the taste and smell leave something to be desired (in my opinion). But once I experienced the effects, I was impressed. Great for daytime use, keeps me uplifted and clear-headed. A little harsh if we&#39;re being honest, but the effects are worth it.
p79
sg25
(lp80
g27
ag43
ag45
ag31
asg32
(lp81
g34
ag36
aS'Tobacco'
p82
asg38
Vhemlocklily
p83
sas.