(dp0
S'strain'
p1
S'outlaw'
p2
sS'categorias'
p3
cnumpy.core.multiarray
_reconstruct
p4
(cnumpy
ndarray
p5
(I0
tp6
S'b'
p7
tp8
Rp9
(I1
(I1
tp10
cnumpy
dtype
p11
(S'O8'
p12
I0
I1
tp13
Rp14
(I3
S'|'
p15
NNNI-1
I-1
I63
tp16
bI00
(lp17
S'Sativa'
p18
atp19
bsS'data_strain'
p20
(lp21
(dp22
S'reporte'
p23
VSubpar effects. Quick acting but fades rapidly. Mildly relieved shoulder pain. Energy provided but after a couple of hours I was couch bound and in need of a stronger med.
p24
sS'efectos'
p25
(lp26
sS'sabores'
p27
(lp28
sS'usuario'
p29
Vsurfingramps
p30
sa(dp31
g23
VOutlaws extract by GoldenXtrX is a Mellow and smooth hit. It has a light skunk flavor.. yet earthy. I found it VERY likable.
p32
sg25
(lp33
S'Energetic'
p34
aS'Focused'
p35
aS'Hungry'
p36
asg27
(lp37
S'Earthy'
p38
aS'Skunk'
p39
aS'Woody'
p40
asg29
Vcrinoid1919
p41
sa(dp42
g23
VGolden Xtrx Oil Cartridge of this strain felt amazing. Uplifting, euphoric, and heady with a sweet taste! Highly recommended for any sativa lover!
p43
sg25
(lp44
S'Creative'
p45
aS'Euphoric'
p46
aS'Tingly'
p47
aS'Uplifted'
p48
asg27
(lp49
sg29
VRootsWarrior7
p50
sa(dp51
g23
Vaverage sativa, not so tasty nor uplifting, gets my body nervous
p52
sg25
(lp53
g34
ag46
asg27
(lp54
g38
aS'Spicy/Herbal'
p55
ag40
asg29
VCrespalin
p56
sas.