(dp0
S'strain'
p1
S'pacific-blue'
p2
sS'categorias'
p3
cnumpy.core.multiarray
_reconstruct
p4
(cnumpy
ndarray
p5
(I0
tp6
S'b'
p7
tp8
Rp9
(I1
(I1
tp10
cnumpy
dtype
p11
(S'O8'
p12
I0
I1
tp13
Rp14
(I3
S'|'
p15
NNNI-1
I-1
I63
tp16
bI00
(lp17
S'Indica'
p18
atp19
bsS'data_strain'
p20
(lp21
(dp22
S'reporte'
p23
VSure does the job of a true indica dominant strain,\u000a\u000afirst off with its overwhelmingly earthy taste as your body is covered with a tingling sensation as your limbs start to weigh letting the pain go away.\u000a\u000asecond off with its continued use of the strain it\u2019s overwhelming earthiness dials down to a low as a flowery taste becomes mid level while your taste buds bathe in a blueberry taste. \u000a\u000aDefinitely recommend as an indica.
p24
sS'efectos'
p25
(lp26
S'Euphoric'
p27
aS'Hungry'
p28
aS'Relaxed'
p29
aS'Sleepy'
p30
aS'Tingly'
p31
asS'sabores'
p32
(lp33
S'Blueberry'
p34
aS'Earthy'
p35
aS'Flowery'
p36
asS'usuario'
p37
Viansage554
p38
sa(dp39
g23
VBought an eight for 43 dollar. It&#39;s smell wonderful . Earthy and flowery with the hint of blue berry. Love the high it&#39;s give. With this strain you wanna hang out and chill 
p40
sg25
(lp41
S'Focused'
p42
aS'Happy'
p43
ag29
ag30
ag31
aS'Dry Eyes'
p44
asg32
(lp45
g35
ag36
asg37
Vnhocli100
p46
sa(dp47
g23
VWithout a doubt, one of THE best and most potent flower I have tried.  Euphoric and absolutely encapsulates the user in a tingly high; helps open the mind and zone in on a lot of ideas and thoughts; will kick depression in the a** for sure! Not sure if I would recommend before bed or not, it was quite relaxing for the body but also quite stimulating for the mind with all the ideas. Very beautiful smelling/looking flower and it seems the growers truly care about their craft. Hopefully Falcanna will expand it&#39;s line up to Canada, BC Bud needs some competition!
p48
sg25
(lp49
S'Aroused'
p50
aS'Creative'
p51
ag27
ag42
ag29
ag31
aS'Dry Mouth'
p52
asg32
(lp53
S'Berry'
p54
aS'Spicy/Herbal'
p55
asg37
Vanxietygurl
p56
sa(dp57
g23
VIt&#39;s a wonderful dense earthy marijuana! Everytime I smoke this I feel heavily sedated and can tell this weed has affected me instantly! I have a high weed tolerance and this betty takes the cake!
p58
sg25
(lp59
g27
ag43
ag29
aS'Talkative'
p60
asg32
(lp61
g35
aS'Woody'
p62
asg37
VNorsewest
p63
sas.