(dp0
S'strain'
p1
S'pakistan-valley-kush'
p2
sS'categorias'
p3
cnumpy.core.multiarray
_reconstruct
p4
(cnumpy
ndarray
p5
(I0
tp6
S'b'
p7
tp8
Rp9
(I1
(I1
tp10
cnumpy
dtype
p11
(S'O8'
p12
I0
I1
tp13
Rp14
(I3
S'|'
p15
NNNI-1
I-1
I63
tp16
bI00
(lp17
S'Indica'
p18
atp19
bsS'data_strain'
p20
(lp21
(dp22
S'reporte'
p23
VVery good strain needs more  recognition flower or cartridge of this will have you feeling amazing 5/5
p24
sS'efectos'
p25
(lp26
sS'sabores'
p27
(lp28
sS'usuario'
p29
VSpacegodhatesyou
p30
sa(dp31
g23
VVery strong. Nice blueberry smell &amp; taste. Ever time I smoke P.V.K I get a wonderful full night sleep! 
p32
sg25
(lp33
sg27
(lp34
sg29
VCharmCityOutlaw410
p35
sa(dp36
g23
VChill, calm, sleepy, and relaxed
p37
sg25
(lp38
sg27
(lp39
sg29
VChiTown89
p40
sa(dp41
g23
VA true landrace strain. Smoke it everyday. Its the best medicine for all sorts of pain . Grown in the Tribal region of Pakistan that offer perfect conditions for the plants to produce dense colas and sugary trichomes.
p42
sg25
(lp43
S'Focused'
p44
aS'Happy'
p45
aS'Hungry'
p46
aS'Relaxed'
p47
aS'Sleepy'
p48
aS'Dry Mouth'
p49
asg27
(lp50
S'Earthy'
p51
aS'Pungent'
p52
asg29
Vmianhassan07
p53
sa(dp54
g23
VDelicious 
p55
sg25
(lp56
g45
ag47
aS'Uplifted'
p57
asg27
(lp58
S'Berry'
p59
aS'Tropical'
p60
asg29
VLeafmaster4201986
p61
sa(dp62
g23
VExcellent for the end of the day! This shit is sticky and dank and is definitely a one-hitter that produces full-body effects and euphoria.
p63
sg25
(lp64
S'Aroused'
p65
aS'Euphoric'
p66
ag45
ag47
ag48
ag57
asg27
(lp67
sg29
VKingKushMF420
p68
sa(dp69
g23
VThis strain packs a punch. while I&#39;m not to fond of the taste ( I prefer fruity flavors) it&#39;s very piney it&#39;s still one of the best ones I&#39;ve smoked. A rare true indica.
p70
sg25
(lp71
sg27
(lp72
S'Pine'
p73
aS'Woody'
p74
asg29
Vdood602
p75
sa(dp76
g23
Va great strain. fantastic flavor and full of earthy aroma.
p77
sg25
(lp78
sg27
(lp79
sg29
VAkaStonerMan
p80
sas.