(dp0
S'strain'
p1
S'pineapple-cookies'
p2
sS'categorias'
p3
cnumpy.core.multiarray
_reconstruct
p4
(cnumpy
ndarray
p5
(I0
tp6
S'b'
p7
tp8
Rp9
(I1
(I1
tp10
cnumpy
dtype
p11
(S'O8'
p12
I0
I1
tp13
Rp14
(I3
S'|'
p15
NNNI-1
I-1
I63
tp16
bI00
(lp17
S'Hybrid'
p18
atp19
bsS'data_strain'
p20
(lp21
(dp22
S'reporte'
p23
VLooks, and tastes amazing. Not the skunky smell or near the high im used too, however. Would be nice to smoke during the day. 
p24
sS'efectos'
p25
(lp26
S'Energetic'
p27
aS'Euphoric'
p28
aS'Talkative'
p29
aS'Anxious'
p30
aS'Paranoid'
p31
asS'sabores'
p32
(lp33
S'Butter'
p34
aS'Flowery'
p35
aS'Sweet'
p36
asS'usuario'
p37
Vdabme420
p38
sas.