(dp0
S'strain'
p1
S'pink-pez'
p2
sS'categorias'
p3
cnumpy.core.multiarray
_reconstruct
p4
(cnumpy
ndarray
p5
(I0
tp6
S'b'
p7
tp8
Rp9
(I1
(I1
tp10
cnumpy
dtype
p11
(S'O8'
p12
I0
I1
tp13
Rp14
(I3
S'|'
p15
NNNI-1
I-1
I63
tp16
bI00
(lp17
S'Hybrid'
p18
atp19
bsS'data_strain'
p20
(lp21
(dp22
S'reporte'
p23
VComes on like a Mack truck possessed by the devil. Totally heightened every sense (especially hearing) and sun sensitivity. Made me pretty anxious too. Also brought on a bit of paranoia but I&#39;m not used to sensory overload like that. More research required. Amazingly after an hour or so it \u000abalances out to a really, really mellow high. 
p24
sS'efectos'
p25
(lp26
sS'sabores'
p27
(lp28
sS'usuario'
p29
VDurbanAssassin
p30
sa(dp31
g23
VNot as good as the pink kush but it is up there.
p32
sg25
(lp33
S'Creative'
p34
aS'Giggly'
p35
aS'Happy'
p36
asg27
(lp37
sg29
Vjdmcrxk20a
p38
sas.