(dp0
S'strain'
p1
S'quin-n-tonic'
p2
sS'categorias'
p3
cnumpy.core.multiarray
_reconstruct
p4
(cnumpy
ndarray
p5
(I0
tp6
S'b'
p7
tp8
Rp9
(I1
(I1
tp10
cnumpy
dtype
p11
(S'O8'
p12
I0
I1
tp13
Rp14
(I3
S'|'
p15
NNNI-1
I-1
I63
tp16
bI00
(lp17
S'Indica'
p18
atp19
bsS'data_strain'
p20
(lp21
(dp22
S'reporte'
p23
VHey, it&#39;s  Mr. Pecok from Yakima, WA!!!!\u000aI bought this strain in Spokane, WA @ Royal Cannabis by Alternative Us\u000a    It helped with my nausea, loss of apetite, stomach pain, body aches, anxiety, and head ache.
p24
sS'efectos'
p25
(lp26
S'Happy'
p27
aS'Hungry'
p28
aS'Relaxed'
p29
aS'Dry Eyes'
p30
asS'sabores'
p31
(lp32
S'Blueberry'
p33
aS'Earthy'
p34
aS'Flowery'
p35
aS'Pungent'
p36
aS'Sweet'
p37
asS'usuario'
p38
VMperezive
p39
sa(dp40
g23
VAwesome stuff, just got some from the downtown dispensary, perfect for bedtime smells super bomb too!
p41
sg25
(lp42
S'Euphoric'
p43
ag29
aS'Sleepy'
p44
aS'Tingly'
p45
asg31
(lp46
g33
ag36
aS'Skunk'
p47
asg38
Vazrockg
p48
sas.