(dp0
S'strain'
p1
S'qush'
p2
sS'categorias'
p3
cnumpy.core.multiarray
_reconstruct
p4
(cnumpy
ndarray
p5
(I0
tp6
S'b'
p7
tp8
Rp9
(I1
(I1
tp10
cnumpy
dtype
p11
(S'O8'
p12
I0
I1
tp13
Rp14
(I3
S'|'
p15
NNNI-1
I-1
I63
tp16
bI00
(lp17
S'Indica'
p18
atp19
bsS'data_strain'
p20
(lp21
(dp22
S'reporte'
p23
Vmakes you relaxed and calm, mostly functional\u000atastes like pine trees, but unlike pine sol\u000agood strength and feeling\u000aspace queen is always a winner
p24
sS'efectos'
p25
(lp26
S'Happy'
p27
aS'Hungry'
p28
aS'Relaxed'
p29
asS'sabores'
p30
(lp31
S'Earthy'
p32
aS'Flowery'
p33
aS'Pine'
p34
aS'Woody'
p35
asS'usuario'
p36
Vspacetang
p37
sas.