(dp0
S'strain'
p1
S'rainbow-jones'
p2
sS'categorias'
p3
cnumpy.core.multiarray
_reconstruct
p4
(cnumpy
ndarray
p5
(I0
tp6
S'b'
p7
tp8
Rp9
(I1
(I1
tp10
cnumpy
dtype
p11
(S'O8'
p12
I0
I1
tp13
Rp14
(I3
S'|'
p15
NNNI-1
I-1
I63
tp16
bI00
(lp17
S'Indica'
p18
atp19
bsS'data_strain'
p20
(lp21
(dp22
S'reporte'
p23
VBeautiful colors to it, along with its amazing smell. Heavy indica but not the type that will make you fall asleep. Very nice mellow body high. Definitely gonna get it time and time again. 
p24
sS'efectos'
p25
(lp26
S'Aroused'
p27
aS'Creative'
p28
aS'Energetic'
p29
aS'Euphoric'
p30
aS'Focused'
p31
aS'Happy'
p32
aS'Relaxed'
p33
aS'Talkative'
p34
aS'Tingly'
p35
aS'Uplifted'
p36
asS'sabores'
p37
(lp38
sS'usuario'
p39
VChadd720
p40
sa(dp41
g23
VVery sticky and great scent, smooth and beautifully colored. 
p42
sg25
(lp43
sg37
(lp44
sg39
Vleaflywarrior
p45
sa(dp46
g23
VReally enjoyable to smoke and\u000a a grade A high. Reliable Indica. 
p47
sg25
(lp48
g30
ag32
ag33
asg37
(lp49
sg39
Vlurkerga
p50
sa(dp51
g23
VThis strain is amazing. It\u2019s great for relaxing and watching tv or listening to music. Or dancing by yourself or writing a philosophy paper.  This strain is multi fauceted with dashes of sativa and indica at different moments of the experience. It\u2019s so fun haha.
p52
sg25
(lp53
sg37
(lp54
sg39
VMarcellusKnicely
p55
sas.