(dp0
S'strain'
p1
S'red-poison'
p2
sS'categorias'
p3
cnumpy.core.multiarray
_reconstruct
p4
(cnumpy
ndarray
p5
(I0
tp6
S'b'
p7
tp8
Rp9
(I1
(I1
tp10
cnumpy
dtype
p11
(S'O8'
p12
I0
I1
tp13
Rp14
(I3
S'|'
p15
NNNI-1
I-1
I63
tp16
bI00
(lp17
S'Hybrid'
p18
atp19
bsS'data_strain'
p20
(lp21
(dp22
S'reporte'
p23
VNice high with a lovely uplifting touch, good for a chilled adventure\u000a
p24
sS'efectos'
p25
(lp26
S'Creative'
p27
aS'Energetic'
p28
aS'Euphoric'
p29
aS'Focused'
p30
aS'Happy'
p31
aS'Relaxed'
p32
aS'Talkative'
p33
aS'Tingly'
p34
aS'Uplifted'
p35
aS'Dry Mouth'
p36
asS'sabores'
p37
(lp38
S'Grape'
p39
asS'usuario'
p40
Vjtho2g
p41
sa(dp42
g23
VGreat high, steady waves, a little hard on the throat. Definitely put me to bed so handle all your affairs for the day before enjoying. A nap very well may be in the future lol.
p43
sg25
(lp44
g29
aS'Giggly'
p45
ag32
aS'Sleepy'
p46
ag33
asg37
(lp47
sg40
Vvozdiverse
p48
sa(dp49
g23
Vso far it&#39;s growing beautifully haven&#39;t smoked it but it looks and smells great it has a gasoline smell with a hint of berries or fruit it takes longer than 8 wks so be patient mine is on week 9 and its still \u000agoing started the flush it should be done by wk 10-11 will do a smoke review when its done 
p50
sg25
(lp51
sg37
(lp52
sg40
Vvandal559
p53
sa(dp54
g23
VThis time, I&#39;ve catched the predominant phenotipe, red/ purple spongy buds, whith not much trim. Very strong geranium flower smell, a lilltle bit harsh on the troath, medium mostly indica stone.
p55
sg25
(lp56
g45
aS'Hungry'
p57
ag46
ag33
ag35
aS'Dry Eyes'
p58
ag36
asg37
(lp59
S'Flowery'
p60
aS'Lavender'
p61
aS'Lemon'
p62
aS'Rose'
p63
aS'Sweet'
p64
aS'Tropical'
p65
aS'Violet'
p66
aS'Woody'
p67
asg40
Vyogiova
p68
sa(dp69
g23
Vbueno , una muy buena variedad del banco espa&#241;ol Sweet Seeds, cultivada en indoor bajo 150w sodio con un ciclo luminico de 20/4 , responde muy bien a los nutrientes y es una planta muy f&#225;cil de cultivar, da cosechas generosas a pesar de la baja potencia lum&#237;nica y en una maceta definitiva de 11L, en temas de aroma, en el cultivo tiene un aroma claramente dulce y suave, no muy pasoso, la pigmentaci&#243;n morada que promete esta variedad si se cumple , pens&#233; que no lo har&#237;a pero si pas&#243; casi al final de la floraci&#243;n, vale decir que jugu&#233; con las temperaturas para que adquiera m&#225;s fuerte si pigmentaci&#243;n morada , dando unos cogollos no muy densos por la potencia luminica y por falta de un engorde p/k pero en color eran morados , morado oscuro casi negro, efecto bueno... claramente indico dominante, las primeras dos caladas ya te dejan con los ojos pesados, un bienestar corporal general y alivio a todo dolor y preocupaci&#243;n , lo bueno de esta variedad que no da sue&#241;o y tampoco te deja con el t&#237;pico &quot;couch-lock&quot; puedes hacer lo que sea en tu d&#237;a a d&#237;a con un toque m&#225;s relajado haci&#233;ndote una persona m&#225;s tranquila y pac&#237;fica sobre todo si debes hacer alguna situaci&#243;n que te ponga un poco nervioso, sabor bueno suave y muy dulce , todo un veneno rojo en marihuana, muy recomendada y divertida de cultivar 
p70
sg25
(lp71
sg37
(lp72
sg40
Vghaalder488
p73
sa(dp74
g23
Vbueno , una muy buena variedad del banco espa&#241;ol Sweet Seeds, cultivada en indoor bajo 150w sodio con un ciclo luminico de 20/4 , responde muy bien a los nutrientes y es una planta muy f&#225;cil de cultivar, da cosechas generosas a pesar de la baja potencia lum&#237;nica y en una maceta definitiva de 11L, en temas de aroma, en el cultivo tiene un aroma claramente dulce y suave, no muy pasoso, la pigmentaci&#243;n morada que promete esta variedad si se cumple , pens&#233; que no lo har&#237;a pero si pas&#243; casi al final de la floraci&#243;n, vale decir que jugu&#233; con las temperaturas para que adquiera m&#225;s fuerte si pigmentaci&#243;n morada , dando unos cogollos no muy densos por la potencia luminica y por falta de un engorde p/k pero en color eran morados , morado oscuro casi negro, efecto bueno... claramente indico dominante, las primeras dos caladas ya te dejan con los ojos pesados, un bienestar corporal general y alivio a todo dolor y preocupaci&#243;n , lo bueno de esta variedad que no da sue&#241;o y tampoco te deja con el t&#237;pico &quot;couch-lock&quot; puedes hacer lo que sea en tu d&#237;a a d&#237;a con un toque m&#225;s relajado haci&#233;ndote una persona m&#225;s tranquila y pac&#237;fica sobre todo si debes hacer alguna situaci&#243;n que te ponga un poco nervioso, sabor bueno suave y muy dulce , todo un veneno rojo en marihuana, muy recomendada y divertida de cultivar 
p75
sg25
(lp76
g27
ag31
ag32
ag33
ag58
ag36
asg37
(lp77
S'Berry'
p78
aS'Earthy'
p79
ag64
ag67
asg40
Vghaalder488
p80
sa(dp81
g23
VAbsolutely Amazing \u2764\ufe0f
p82
sg25
(lp83
g31
ag57
ag32
ag35
ag58
ag36
aS'Headache'
p84
asg37
(lp85
S'Citrus'
p86
ag79
aS'Pepper'
p87
asg40
VMikeN7
p88
sa(dp89
g23
VDe las mejores razas que he probado hasta el momento, con un rico sabor dulce y un con subid&#243;n en&#233;rgico.
p90
sg25
(lp91
g28
ag29
ag31
ag32
ag33
asg37
(lp92
S'Coffee'
p93
ag64
asg40
VEjero
p94
sa(dp95
g23
VI grew 4 of these at the same time, one got nice and fat with lots of red and purple in it, the other three where much smaller, but all of them smelled so sweet like fruity pebbles cereal. It yielded 2 dry ounce of killer bud love it I would grow it again.
p96
sg25
(lp97
g29
ag32
ag46
ag58
asg37
(lp98
S'Skunk'
p99
aS'Tree'
p100
aS'Fruit'
p101
asg40
Vbadtrip420
p102
sa(dp103
g23
Vbueno , una muy buena variedad del banco espa&#241;ol Sweet Seeds, cultivada en indoor bajo 150w sodio con un ciclo luminico de 20/4 , responde muy bien a los nutrientes y es una planta muy f&#225;cil de cultivar, da cosechas generosas a pesar de la baja potencia lum&#237;nica y en una maceta definitiva de 11L, en temas de aroma, en el cultivo tiene un aroma claramente dulce y suave, no muy pasoso, la pigmentaci&#243;n morada que promete esta variedad si se cumple , pens&#233; que no lo har&#237;a pero si pas&#243; casi al final de la floraci&#243;n, vale decir que jugu&#233; con las temperaturas para que adquiera m&#225;s fuerte si pigmentaci&#243;n morada , dando unos cogollos no muy densos por la potencia luminica y por falta de un engorde p/k pero en color eran morados , morado oscuro casi negro, efecto bueno... claramente indico dominante, las primeras dos caladas ya te dejan con los ojos pesados, un bienestar corporal general y alivio a todo dolor y preocupaci&#243;n , lo bueno de esta variedad que no da sue&#241;o y tampoco te deja con el t&#237;pico &quot;couch-lock&quot; puedes hacer lo que sea en tu d&#237;a a d&#237;a con un toque m&#225;s relajado haci&#233;ndote una persona m&#225;s tranquila y pac&#237;fica sobre todo si debes hacer alguna situaci&#243;n que te ponga un poco nervioso, sabor bueno suave y muy dulce , todo un veneno rojo en marihuana, muy recomendada y divertida de cultivar 
p104
sg25
(lp105
sg37
(lp106
sg40
Vghaalder488
p107
sa(dp108
g23
VThis red poison is freaking awesome..loved the high. The potency and euphoria is what made this strain shine.
p109
sg25
(lp110
S'Aroused'
p111
ag29
ag35
asg37
(lp112
sg40
Vrshackleferd
p113
sa(dp114
g23
Vvery sweety weed\u000a
p115
sg25
(lp116
sg37
(lp117
sg40
Vspaceghostpink
p118
sa(dp119
g23
VI grew this strain myself, which was very easy even for a beginner like me. Plants started out green and then turned to a deep red/purple when in bloom, which doesn&#39;t only look nice but is also a great cover because people don&#39;t expect cannabis to be purple ;-) Plants grew a solid stem, little foliage around the buds so very easy to harvest.\u000a\u000aIt gives me a mellow, but clear high. I just feel &#39;chill&#39; yet I&#39;m able to focus on a task. It makes me a bit more introvert and dreamy, not the most social strain I ever tried. I would recommend this for daytime use, outdoor activities, or a night on the couch watching series. \u000a\u000aWhy only 3 stars? It&#39;s the taste and smell. The buds are like little bunches of grapes, the colour as well as the sweet smell. However, the taste reminds me more of vinegar. Earthy, a hint of musk, heavy sweet tones. But not the &#39;sweet&#39; as in candy-sweet, it&#39;s more of a spicy sweet. It&#39;s very typical and I think it&#39;s a taste you have to like. And even though I really like the high, I won&#39;t grow this plant again.
p120
sg25
(lp121
g28
ag30
ag32
ag35
ag58
asg37
(lp122
S'Ammonia'
p123
ag79
ag39
asg40
VMaryJaneNL
p124
sa(dp125
g23
Vbueno , una muy buena variedad del banco espa&#241;ol Sweet Seeds, cultivada en indoor bajo 150w sodio con un ciclo luminico de 20/4 , responde muy bien a los nutrientes y es una planta muy f&#225;cil de cultivar, da cosechas generosas a pesar de la baja potencia lum&#237;nica y en una maceta definitiva de 11L, en temas de aroma, en el cultivo tiene un aroma claramente dulce y suave, no muy pasoso, la pigmentaci&#243;n morada que promete esta variedad si se cumple , pens&#233; que no lo har&#237;a pero si pas&#243; casi al final de la floraci&#243;n, vale decir que jugu&#233; con las temperaturas para que adquiera m&#225;s fuerte si pigmentaci&#243;n morada , dando unos cogollos no muy densos por la potencia luminica y por falta de un engorde p/k pero en color eran morados , morado oscuro casi negro, efecto bueno... claramente indico dominante, las primeras dos caladas ya te dejan con los ojos pesados, un bienestar corporal general y alivio a todo dolor y preocupaci&#243;n , lo bueno de esta variedad que no da sue&#241;o y tampoco te deja con el t&#237;pico &quot;couch-lock&quot; puedes hacer lo que sea en tu d&#237;a a d&#237;a con un toque m&#225;s relajado haci&#233;ndote una persona m&#225;s tranquila y pac&#237;fica sobre todo si debes hacer alguna situaci&#243;n que te ponga un poco nervioso, sabor bueno suave y muy dulce , todo un veneno rojo en marihuana, muy recomendada y divertida de cultivar 
p126
sg25
(lp127
sg37
(lp128
sg40
Vghaalder488
p129
sa(dp130
g23
VVery dark purple and spongy buds with a intense flavour of chocolate and citrus. The buds are covered of \u000ahashy resin, and the stone is clear and relaxing. \u000a
p131
sg25
(lp132
g32
ag35
asg37
(lp133
g86
ag64
asg40
Vyogiova
p134
sa(dp135
g23
Vgrown this a few times now and it&#39;s definitely up in my top 5 favourites to smoke. but yield has consistently been low, under half oz per plant. \u000amakes up for it in potency and flavour but several at once are required if you want a decent yield
p136
sg25
(lp137
g29
ag31
ag32
asg37
(lp138
sg40
Vgroverdose
p139
sa(dp140
g23
VVery good strain for long conversations, good stress killer, has a nice fruit smell to it.  I would buy this again and again!
p141
sg25
(lp142
g27
ag28
ag29
ag45
ag32
ag33
ag58
ag36
asg37
(lp143
g78
ag86
ag79
ag62
aS'Pungent'
p144
ag64
ag67
asg40
Vpsychedelica208
p145
sa(dp146
g23
VThis strain is a must try ! Beautiful colors, dazzling trichome production, and wonderful smell. The effects were a nice blend of heady euphoria, with a mellow relaxation. 
p147
sg25
(lp148
g29
ag31
ag32
ag36
asg37
(lp149
g86
ag79
ag144
ag99
asg40
Vcountytoker
p150
sa(dp151
g23
VThe Red Poison is the very best srain that I ever have growed. I&#39;m expecting for better ones but this plant has an amazing purple-black colour from hindu kush and the powerful taste of licorice. The effect is amazing too, mixing the thankful sense of happyness with the indica&#39;s relaxed effect. And very easy to grow in outdoor.
p152
sg25
(lp153
g27
ag29
ag31
ag57
ag32
ag46
ag33
ag35
aS'Dizzy'
p154
ag58
ag36
asg37
(lp155
g86
ag79
ag60
aS'Spicy/Herbal'
p156
ag64
ag65
asg40
VKisspepSage
p157
sa(dp158
g23
VIn my state is is illegal to grow, thus I again have to be in the closet. This is a good strain for guerrilla growers. The colors throw people off, my boyfriend didnt even know it was a weed plant :) High is indica- nice happy high.
p159
sg25
(lp160
g29
ag31
ag35
asg37
(lp161
sg40
VOldLion
p162
sas.