(dp0
S'strain'
p1
S'rockbud'
p2
sS'categorias'
p3
cnumpy.core.multiarray
_reconstruct
p4
(cnumpy
ndarray
p5
(I0
tp6
S'b'
p7
tp8
Rp9
(I1
(I1
tp10
cnumpy
dtype
p11
(S'O8'
p12
I0
I1
tp13
Rp14
(I3
S'|'
p15
NNNI-1
I-1
I63
tp16
bI00
(lp17
S'Indica'
p18
atp19
bsS'data_strain'
p20
(lp21
(dp22
S'reporte'
p23
VDespite being an indica, this has a very nice head high. I felt extremely creative and euphoric. My head felt warm and nice. It was very strong there, and I felt a good body high as well. Overall, very nice.
p24
sS'efectos'
p25
(lp26
S'Creative'
p27
aS'Energetic'
p28
aS'Euphoric'
p29
aS'Uplifted'
p30
aS'Dry Eyes'
p31
aS'Dry Mouth'
p32
aS'Headache'
p33
aS'Paranoid'
p34
asS'sabores'
p35
(lp36
sS'usuario'
p37
Vnoodlyappendage
p38
sas.