(dp0
S'strain'
p1
S'shangri-la'
p2
sS'categorias'
p3
cnumpy.core.multiarray
_reconstruct
p4
(cnumpy
ndarray
p5
(I0
tp6
S'b'
p7
tp8
Rp9
(I1
(I1
tp10
cnumpy
dtype
p11
(S'O8'
p12
I0
I1
tp13
Rp14
(I3
S'|'
p15
NNNI-1
I-1
I63
tp16
bI00
(lp17
S'Hybrid'
p18
atp19
bsS'data_strain'
p20
(lp21
(dp22
S'reporte'
p23
VOne of the best highs ever, potent so not much is needed, a deliciously sensual body high and &quot;warm fuzzy&quot; feeling right before bed. 
p24
sS'efectos'
p25
(lp26
S'Aroused'
p27
aS'Euphoric'
p28
aS'Relaxed'
p29
aS'Sleepy'
p30
aS'Tingly'
p31
aS'Uplifted'
p32
asS'sabores'
p33
(lp34
S'Honey'
p35
aS'Lemon'
p36
aS'Pepper'
p37
aS'Pine'
p38
aS'Sage'
p39
asS'usuario'
p40
VS34gr33n13
p41
sa(dp42
g23
VFrom what I can remember, this had the perfect head and body high.
p43
sg25
(lp44
sg33
(lp45
sg40
Vjmanderson84
p46
sa(dp47
g23
VGreat taste \u000aTried this in a per roll and it was good hope to find in bud 
p48
sg25
(lp49
sg33
(lp50
sg40
VDisney61
p51
sa(dp52
g23
Vgreat for an afternoon pain relieving J. 
p53
sg25
(lp54
g28
aS'Happy'
p55
ag29
ag30
ag31
ag32
asg33
(lp56
S'Earthy'
p57
aS'Pungent'
p58
ag39
asg40
VN30shadow
p59
sa(dp60
g23
VThis was the only strain in my inventory that was able to conquer a week long string of panic attacks. I will buy Shangri-La any time I can get my hands on it. It&#39;s a pleasant but not overwhelming high. Fantastic. 
p61
sg25
(lp62
g55
ag29
ag32
asg33
(lp63
S'Citrus'
p64
ag57
aS'Flowery'
p65
ag38
asg40
VMorgybear
p66
sa(dp67
g23
VVery good for your day to day use. great for work very energetic  and positive mood enhancer 
p68
sg25
(lp69
S'Energetic'
p70
ag28
aS'Focused'
p71
ag29
aS'Talkative'
p72
ag32
asg33
(lp73
g57
ag58
aS'Woody'
p74
asg40
VJavicog2003
p75
sa(dp76
g23
VAmazing! The live resin had so many delicious terps. Really heady high. 
p77
sg25
(lp78
sg33
(lp79
sg40
VDayTripper7711
p80
sa(dp81
g23
VThis will definitely calm you down and mellow you out, but I wouldn&#39;t say its good for recreational use. The euphoric, happy effects are minimal and it tends to give me an unpleasant headache/heavy body feeling that lasts for even a day or two, which I don&#39;t usually experience with other strains.
p82
sg25
(lp83
g29
ag30
aS'Dry Eyes'
p84
aS'Dry Mouth'
p85
aS'Headache'
p86
asg33
(lp87
sg40
Vclosetometal
p88
sa(dp89
g23
VNicely covered nugs with orange hairs, has a great citrus skunky type smell and taste. More of an uplifting high for sure, put me in a good relaxed state but energetic. Day Time use all the way not so much of a before bed session
p90
sg25
(lp91
sg33
(lp92
sg40
Vkinglouiiy
p93
sa(dp94
g23
VBeautiful, danky trich covered perfect nugs... Smells otherworldly looks amazing, tastes amazing... Perfect nugs.
p95
sg25
(lp96
g27
aS'Creative'
p97
ag70
ag28
ag71
aS'Giggly'
p98
ag55
ag29
ag72
ag31
ag32
asg33
(lp99
S'Apple'
p100
aS'Apricot'
p101
aS'Berry'
p102
ag64
ag57
ag36
aS'Lime'
p103
aS'Peach'
p104
aS'Pear'
p105
ag58
aS'Strawberry'
p106
aS'Sweet'
p107
aS'Tree'
p108
aS'Fruit'
p109
aS'Tropical'
p110
asg40
VHazeRage
p111
sa(dp112
g23
VI just tried this strain for the first time and was pleasantly surprised.  It made me extremely chatty, energetic and focused.  It also relieved my chronic pain and boosted my creativity.  I was a bit skeptical because it was so inexpensive, but it really works for me on so many levels. I will definitely be getting this again.
p113
sg25
(lp114
sg33
(lp115
sg40
V1Candle
p116
sa(dp117
g23
Vvery nice strain, happy relaxed feeling.  good all around buzz in any setting. a must try. 
p118
sg25
(lp119
g27
ag97
ag70
ag28
ag98
ag55
ag29
ag72
ag32
ag84
ag85
asg33
(lp120
sg40
VMatt5279
p121
sa(dp122
g23
VThis is such a great strain for PTSD and Pain relief!\u000a The taste is fruity with that 9lb hammer on exhale. It has become one of my go to.
p123
sg25
(lp124
g97
ag71
ag55
ag29
ag32
asg33
(lp125
sg40
VBigDadEJ
p126
sa(dp127
g23
VShangri-la is always a fun strain to find! I don&#39;t hear of it around too often, but when I do, I always grab some. 
p128
sg25
(lp129
g70
ag28
ag55
ag29
ag32
asg33
(lp130
sg40
VErin420lovesJackson
p131
sa(dp132
g23
VGreat bud and a great uplifting high
p133
sg25
(lp134
g70
ag28
ag55
ag32
ag84
ag85
asg33
(lp135
sg40
VPra420calikush
p136
sas.