(dp0
S'strain'
p1
S'shark-attack'
p2
sS'categorias'
p3
cnumpy.core.multiarray
_reconstruct
p4
(cnumpy
ndarray
p5
(I0
tp6
S'b'
p7
tp8
Rp9
(I1
(I1
tp10
cnumpy
dtype
p11
(S'O8'
p12
I0
I1
tp13
Rp14
(I3
S'|'
p15
NNNI-1
I-1
I63
tp16
bI00
(lp17
S'Indica'
p18
atp19
bsS'data_strain'
p20
(lp21
(dp22
S'reporte'
p23
VNice strain with good aroma. \u000aIt will make you be really relaxed but at the same time not sleepy. I smoked it with my friends yesterday and it get high you like an extacy-you relaxed, but you want to dance, you feel music and really want to hug your friends. \u000aAlso make you creative. \u000aRecommended :) 
p24
sS'efectos'
p25
(lp26
S'Aroused'
p27
aS'Creative'
p28
aS'Energetic'
p29
aS'Euphoric'
p30
aS'Focused'
p31
aS'Giggly'
p32
aS'Happy'
p33
aS'Hungry'
p34
aS'Relaxed'
p35
aS'Talkative'
p36
aS'Tingly'
p37
aS'Uplifted'
p38
aS'Dizzy'
p39
aS'Dry Eyes'
p40
aS'Dry Mouth'
p41
aS'Paranoid'
p42
asS'sabores'
p43
(lp44
S'Earthy'
p45
aS'Flowery'
p46
aS'Lemon'
p47
aS'Pungent'
p48
aS'Spicy/Herbal'
p49
asS'usuario'
p50
VMarex420
p51
sa(dp52
g23
VLow end 4... as soon as my high kicked in I am productive and energetic, this is followed by a full body tingle and your thought process goes through the motions. As soon as I sat down the munchies kicked in and then a nice leg fuzz and a nice headbang begins. This strain made me very talkative and very aroused also gave me a good nights sleep
p53
sg25
(lp54
g27
ag28
ag29
ag31
ag32
ag33
ag34
ag35
ag36
ag37
ag39
ag40
ag41
ag42
asg43
(lp55
g45
ag48
aS'Woody'
p56
asg50
VJackFlash92
p57
sa(dp58
g23
VAs an indica lover, I normally go for the highest level of thc possible, but this strain also has a relatively high content of cbd which really relaxed my body and took away some of my aches and pains.    I didnt get the same type of high off of this as I do something like kosher kush, but this was a nice mellow, relaxed high that helped me to concentrate and get some work done on the computer.
p59
sg25
(lp60
g30
ag31
ag34
ag35
asg43
(lp61
g45
aS'Pine'
p62
ag49
asg50
VIndicaem
p63
sa(dp64
g23
VHi
p65
sg25
(lp66
sg43
(lp67
sg50
VSwatter
p68
sas.