(dp0
S'strain'
p1
S'silverhawks-og'
p2
sS'categorias'
p3
cnumpy.core.multiarray
_reconstruct
p4
(cnumpy
ndarray
p5
(I0
tp6
S'b'
p7
tp8
Rp9
(I1
(I1
tp10
cnumpy
dtype
p11
(S'O8'
p12
I0
I1
tp13
Rp14
(I3
S'|'
p15
NNNI-1
I-1
I63
tp16
bI00
(lp17
S'Sativa'
p18
atp19
bsS'data_strain'
p20
(lp21
(dp22
S'reporte'
p23
VWow! Great head rush with this! Just what I needed :) Good taste and beautiful look with all the hairs.
p24
sS'efectos'
p25
(lp26
S'Creative'
p27
aS'Energetic'
p28
aS'Euphoric'
p29
aS'Giggly'
p30
aS'Happy'
p31
aS'Talkative'
p32
aS'Tingly'
p33
aS'Uplifted'
p34
asS'sabores'
p35
(lp36
sS'usuario'
p37
VSativaPsych
p38
sas.