(dp0
S'strain'
p1
S'sin-city-kush'
p2
sS'categorias'
p3
cnumpy.core.multiarray
_reconstruct
p4
(cnumpy
ndarray
p5
(I0
tp6
S'b'
p7
tp8
Rp9
(I1
(I1
tp10
cnumpy
dtype
p11
(S'O8'
p12
I0
I1
tp13
Rp14
(I3
S'|'
p15
NNNI-1
I-1
I63
tp16
bI00
(lp17
S'Indica'
p18
atp19
bsS'data_strain'
p20
(lp21
(dp22
S'reporte'
p23
VDank as fuk
p24
sS'efectos'
p25
(lp26
S'Euphoric'
p27
aS'Happy'
p28
aS'Hungry'
p29
aS'Relaxed'
p30
asS'sabores'
p31
(lp32
sS'usuario'
p33
Vdasdsadas
p34
sa(dp35
g23
V!
p36
sg25
(lp37
sg31
(lp38
sg33
VMetalkid1xxx
p39
sas.