(dp0
S'strain'
p1
S'sonic-screwdriver'
p2
sS'categorias'
p3
cnumpy.core.multiarray
_reconstruct
p4
(cnumpy
ndarray
p5
(I0
tp6
S'b'
p7
tp8
Rp9
(I1
(I1
tp10
cnumpy
dtype
p11
(S'O8'
p12
I0
I1
tp13
Rp14
(I3
S'|'
p15
NNNI-1
I-1
I63
tp16
bI00
(lp17
S'Sativa'
p18
atp19
bsS'data_strain'
p20
(lp21
(dp22
S'reporte'
p23
VRelaxed my intense anxiety from the day, but initially made my OCD worse.  Feel up and happy otherwise.
p24
sS'efectos'
p25
(lp26
sS'sabores'
p27
(lp28
sS'usuario'
p29
VIwontgooutside
p30
sa(dp31
g23
VAbsolutely amaizing, orange pea smell to it and such an amazing ng yield. Pretty high sativa and resinous colas.
p32
sg25
(lp33
sg27
(lp34
sg29
VShatner
p35
sa(dp36
g23
VGas&#128293;
p37
sg25
(lp38
S'Giggly'
p39
aS'Happy'
p40
aS'Uplifted'
p41
asg27
(lp42
sg29
Vjdt322
p43
sa(dp44
g23
Vnice uplifting high
p45
sg25
(lp46
S'Energetic'
p47
aS'Euphoric'
p48
ag39
ag40
ag41
asg27
(lp49
sg29
Vgubbahey
p50
sa(dp51
g23
Vgreat strain my girlfriend loves this strain helps here with her cramps
p52
sg25
(lp53
S'Creative'
p54
ag48
asg27
(lp55
S'Sweet'
p56
asg29
VRAGEOWL
p57
sa(dp58
g23
VI haven&#39;t been able to find this strain anywhere anymore but let me say this strain was amongst the best bud I have ever smoked in my life. 1 bowl and I can feel the high seeping into my body. Unreal effects, hits right in between the eyes, that good Stoney feeling. 10/10 
p59
sg25
(lp60
sg27
(lp61
sg29
Vnickdorazioo
p62
sas.