(dp0
S'strain'
p1
S'special-kush-1'
p2
sS'categorias'
p3
cnumpy.core.multiarray
_reconstruct
p4
(cnumpy
ndarray
p5
(I0
tp6
S'b'
p7
tp8
Rp9
(I1
(I1
tp10
cnumpy
dtype
p11
(S'O8'
p12
I0
I1
tp13
Rp14
(I3
S'|'
p15
NNNI-1
I-1
I63
tp16
bI00
(lp17
S'Indica'
p18
atp19
bsS'data_strain'
p20
(lp21
(dp22
S'reporte'
p23
VWas a decent smoke. Def provides nice pain relief, wasn\u2019t much of a sleep aid however. Good mid day smoke if you\u2019re have a slow day that you want to chill throughout. 
p24
sS'efectos'
p25
(lp26
S'Relaxed'
p27
asS'sabores'
p28
(lp29
sS'usuario'
p30
VMitchellandFinese
p31
sa(dp32
g23
VLove this special kush ( aka afghan kush ;) ) low price seeds , good quality buds . Earthy coffee hashy kushy odor and flavour , and sweet woody musky pepper undertones ... Physical effect , good stone , relaxant strain , i love this special kush strain =)
p33
sg25
(lp34
S'Euphoric'
p35
aS'Happy'
p36
ag27
asg28
(lp37
S'Coffee'
p38
aS'Earthy'
p39
aS'Pepper'
p40
aS'Spicy/Herbal'
p41
aS'Woody'
p42
asg30
VLesavoirestunearme7Z
p43
sa(dp44
g23
Vi just have this strain and is very nice high and sweet taste..600wats 4clones i got 350grams..very nice
p45
sg25
(lp46
S'Creative'
p47
aS'Talkative'
p48
aS'Dry Mouth'
p49
asg28
(lp50
g39
ag42
asg30
Vslog
p51
sa(dp52
g23
VIts perfect if you harvest early, with all the hairs white.\u000a
p53
sg25
(lp54
sg28
(lp55
sg30
Vjuanignaciodelrio
p56
sa(dp57
g23
VFirst time with this strain and have not been disappointed yet takes high temps and almost any curve ball you throw at it using fox farm soil and  DR earth brand nutes under two 400 HPS/MH varying both for veg and then flower I&#39;m only giving it a 3 star rating due to I have not reached the flower stage yet but from the looks I&#39;m gonna give it a 9/10 rate
p58
sg25
(lp59
sg28
(lp60
sg30
VHOsquad
p61
sas.