(dp0
S'strain'
p1
S'star-berry'
p2
sS'categorias'
p3
cnumpy.core.multiarray
_reconstruct
p4
(cnumpy
ndarray
p5
(I0
tp6
S'b'
p7
tp8
Rp9
(I1
(I1
tp10
cnumpy
dtype
p11
(S'O8'
p12
I0
I1
tp13
Rp14
(I3
S'|'
p15
NNNI-1
I-1
I63
tp16
bI00
(lp17
S'Indica'
p18
atp19
bsS'data_strain'
p20
(lp21
(dp22
S'reporte'
p23
VI smoked half a joint and it was awesome. I had a pretty good conversation with a sister and played video games. I am about to smoke some more and bake cookies. This stuff is so good, I handle a call from the lawyer with easy, adulted and chilled. A good energy. Mild smoke and has a candy berry flavor not the actually fruit flavor.
p24
sS'efectos'
p25
(lp26
S'Energetic'
p27
aS'Focused'
p28
aS'Relaxed'
p29
aS'Talkative'
p30
asS'sabores'
p31
(lp32
S'Berry'
p33
asS'usuario'
p34
Vbatbabe32
p35
sa(dp36
g23
VStarberry ia great hybrid for pain naseua you can aslo some jt thru out the with no couch lock and amazing terpanes.
p37
sg25
(lp38
sg31
(lp39
g33
asg34
Vbigredaw123
p40
sas.