(dp0
S'strain'
p1
S'supernatural'
p2
sS'categorias'
p3
cnumpy.core.multiarray
_reconstruct
p4
(cnumpy
ndarray
p5
(I0
tp6
S'b'
p7
tp8
Rp9
(I1
(I1
tp10
cnumpy
dtype
p11
(S'O8'
p12
I0
I1
tp13
Rp14
(I3
S'|'
p15
NNNI-1
I-1
I63
tp16
bI00
(lp17
S'Sativa'
p18
atp19
bsS'data_strain'
p20
(lp21
(dp22
S'reporte'
p23
VWeed is tight. 
p24
sS'efectos'
p25
(lp26
sS'sabores'
p27
(lp28
sS'usuario'
p29
Vzzzzzzjoe
p30
sa(dp31
g23
VAmazing strain! Beautiful taste, amazing high. I love this strain it&#39;s my new favorite. Coupes of hits on the bowl hits up in your head. One blunt makes you fully strong high. 
p32
sg25
(lp33
S'Energetic'
p34
aS'Euphoric'
p35
aS'Focused'
p36
aS'Relaxed'
p37
aS'Uplifted'
p38
asg27
(lp39
S'Flowery'
p40
aS'Sweet'
p41
asg29
Vmell0wmoodgotme
p42
sa(dp43
g23
Vgood flavor, excellent pain killer
p44
sg25
(lp45
g36
ag37
aS'Sleepy'
p46
asg27
(lp47
S'Diesel'
p48
aS'Earthy'
p49
ag40
aS'Pungent'
p50
asg29
Vgeistdaemon
p51
sa(dp52
g23
V2 thumbs up! 
p53
sg25
(lp54
S'Creative'
p55
ag35
ag36
ag37
asg27
(lp56
sg29
Vdanielfredlund07
p57
sa(dp58
g23
Veasy super smooth high. very happy ,a Lil giddy but yet focused. great for productivity .
p59
sg25
(lp60
g55
ag36
aS'Giggly'
p61
aS'Happy'
p62
ag37
ag38
asg27
(lp63
sg29
Vjulie7191
p64
sa(dp65
g23
VSimilar to Durban Poison, but with a dreamy head buzz that makes it a good ride.
p66
sg25
(lp67
g55
ag34
ag35
aS'Talkative'
p68
aS'Tingly'
p69
ag38
asg27
(lp70
S'Citrus'
p71
aS'Lemon'
p72
aS'Pine'
p73
asg29
VTypicalMusician
p74
sa(dp75
g23
VGreat Powerful Medicine Relieves Anxiety, Depression, Mental-Physical-Spiritual PAIN, With An Amazing Ability To Get One Transported To The Mother Ship For Mending Overnight.  YAY!
p76
sg25
(lp77
S'Aroused'
p78
ag55
ag34
ag35
ag36
ag62
ag37
ag68
ag69
ag38
asg27
(lp79
g71
aS'Spicy/Herbal'
p80
asg29
Vrichard.weisgerber.9
p81
sas.