(dp0
S'strain'
p1
S'superstar'
p2
sS'categorias'
p3
cnumpy.core.multiarray
_reconstruct
p4
(cnumpy
ndarray
p5
(I0
tp6
S'b'
p7
tp8
Rp9
(I1
(I1
tp10
cnumpy
dtype
p11
(S'O8'
p12
I0
I1
tp13
Rp14
(I3
S'|'
p15
NNNI-1
I-1
I63
tp16
bI00
(lp17
S'Hybrid'
p18
atp19
bsS'data_strain'
p20
(lp21
(dp22
S'reporte'
p23
Vcouple years back i smelled some mystery weed that smells like fruit loops.  this was it.  crazy good.  relaxing.  a little heavy but not cloudy.  
p24
sS'efectos'
p25
(lp26
S'Focused'
p27
aS'Relaxed'
p28
aS'Uplifted'
p29
asS'sabores'
p30
(lp31
S'Apple'
p32
aS'Blueberry'
p33
aS'Citrus'
p34
aS'Strawberry'
p35
asS'usuario'
p36
Vdahljan000
p37
sa(dp38
g23
Vawesome strain 
p39
sg25
(lp40
sg30
(lp41
sg36
Vthc03
p42
sa(dp43
g23
VI loved it, too! A very good antidepressiva , vor me . \u000aAnd i like this nice smoth citrus Touch , it harmonized perfekt with a Cup of Black Tee 
p44
sg25
(lp45
S'Euphoric'
p46
aS'Talkative'
p47
aS'Anxious'
p48
asg30
(lp49
g34
asg36
VMik85
p50
sa(dp51
g23
VNever heard about this one before smoking it. Probably won&#39;t talk much about it afterwards (so maybe that&#39;s why people don&#39;t seem to know much about this strain). Relaxed mental high, energetic.
p52
sg25
(lp53
S'Aroused'
p54
aS'Energetic'
p55
ag28
asg30
(lp56
g34
asg36
Vwassafax
p57
sa(dp58
g23
Vbooo
p59
sg25
(lp60
sg30
(lp61
sg36
V420life
p62
sas.