(dp0
S'strain'
p1
S'tangelo'
p2
sS'categorias'
p3
cnumpy.core.multiarray
_reconstruct
p4
(cnumpy
ndarray
p5
(I0
tp6
S'b'
p7
tp8
Rp9
(I1
(I1
tp10
cnumpy
dtype
p11
(S'O8'
p12
I0
I1
tp13
Rp14
(I3
S'|'
p15
NNNI-1
I-1
I63
tp16
bI00
(lp17
S'Hybrid'
p18
atp19
bsS'data_strain'
p20
(lp21
(dp22
S'reporte'
p23
Vsensory high, feels very pleasant
p24
sS'efectos'
p25
(lp26
S'Aroused'
p27
aS'Euphoric'
p28
aS'Tingly'
p29
aS'Dry Mouth'
p30
aS'Paranoid'
p31
asS'sabores'
p32
(lp33
S'Earthy'
p34
aS'Sage'
p35
aS'Spicy/Herbal'
p36
asS'usuario'
p37
Vhowboutnoah
p38
sa(dp39
g23
VEither rolled up or of a bong, it smokes really well and breaks out beautifully. it isnt as strong as expected but when inhaled its a calming sensation that really chills you out. for me it provides  energetic high then calms you down after a few hours
p40
sg25
(lp41
sg32
(lp42
S'Citrus'
p43
aS'Sweet'
p44
asg37
Vsirgreenfinger
p45
sas.