(dp0
S'strain'
p1
S'thai-tanic'
p2
sS'categorias'
p3
cnumpy.core.multiarray
_reconstruct
p4
(cnumpy
ndarray
p5
(I0
tp6
S'b'
p7
tp8
Rp9
(I1
(I1
tp10
cnumpy
dtype
p11
(S'O8'
p12
I0
I1
tp13
Rp14
(I3
S'|'
p15
NNNI-1
I-1
I63
tp16
bI00
(lp17
S'Sativa'
p18
atp19
bsS'data_strain'
p20
(lp21
(dp22
S'reporte'
p23
VClear and strong, a fun ride with focus. Good for tv. Good daytime meds.
p24
sS'efectos'
p25
(lp26
S'Aroused'
p27
aS'Energetic'
p28
aS'Euphoric'
p29
aS'Focused'
p30
aS'Happy'
p31
asS'sabores'
p32
(lp33
sS'usuario'
p34
VGanjikaferderMangaka
p35
sa(dp36
g23
VA pretty mellow strain that makes me feel happy. A good daytime high where you can still get things done\u000a
p37
sg25
(lp38
g31
aS'Relaxed'
p39
aS'Uplifted'
p40
asg32
(lp41
S'Earthy'
p42
aS'Woody'
p43
asg34
Vkatiemots
p44
sa(dp45
g23
VVery nice head high, a bit jittery with morning coffee, but gets you into a focused  work mode and keeps you there for a long while. A classic sativa with lots of punch, great pain control and clarity.\u000a
p46
sg25
(lp47
S'Creative'
p48
ag28
ag30
ag40
aS'Dry Eyes'
p49
aS'Dry Mouth'
p50
asg32
(lp51
sg34
Vrudierules
p52
sa(dp53
g23
VThis is the best strain I&#39;ve had in a minute. I love this I&#39;m so relaxed and happy and I&#39;m focused so it&#39;s great for work.  It&#39;s is also great for night time for relaxing and taking a bath or watching Netflix then falling asleep. It tastes like chocolate and is kind of spicy. I get a good head high but I&#39;m focused. I love this strain.&#128525;&#128525;
p54
sg25
(lp55
g29
ag30
ag31
aS'Hungry'
p56
aS'Sleepy'
p57
aS'Tingly'
p58
ag40
ag49
asg32
(lp59
S'Coffee'
p60
ag42
aS'Flowery'
p61
aS'Nutty'
p62
aS'Spicy/Herbal'
p63
ag43
asg34
VLostgirl26
p64
sas.