(dp0
S'strain'
p1
S'trash'
p2
sS'categorias'
p3
cnumpy.core.multiarray
_reconstruct
p4
(cnumpy
ndarray
p5
(I0
tp6
S'b'
p7
tp8
Rp9
(I1
(I1
tp10
cnumpy
dtype
p11
(S'O8'
p12
I0
I1
tp13
Rp14
(I3
S'|'
p15
NNNI-1
I-1
I63
tp16
bI00
(lp17
S'Hybrid'
p18
atp19
bsS'data_strain'
p20
(lp21
(dp22
S'reporte'
p23
VGreat for daytime use. Relaxing yet still keeps you focused and upbeat.
p24
sS'efectos'
p25
(lp26
S'Energetic'
p27
aS'Euphoric'
p28
aS'Focused'
p29
aS'Relaxed'
p30
aS'Uplifted'
p31
asS'sabores'
p32
(lp33
S'Berry'
p34
aS'Earthy'
p35
aS'Pungent'
p36
aS'Sweet'
p37
asS'usuario'
p38
Vbpbecker93
p39
sa(dp40
g23
VNew favorite.....\u000aThis stain was made for me. 
p41
sg25
(lp42
g29
aS'Happy'
p43
ag30
ag31
asg32
(lp44
sg38
VTistick
p45
sas.