(dp0
S'strain'
p1
S'treasure-island'
p2
sS'categorias'
p3
cnumpy.core.multiarray
_reconstruct
p4
(cnumpy
ndarray
p5
(I0
tp6
S'b'
p7
tp8
Rp9
(I1
(I1
tp10
cnumpy
dtype
p11
(S'O8'
p12
I0
I1
tp13
Rp14
(I3
S'|'
p15
NNNI-1
I-1
I63
tp16
bI00
(lp17
S'Hybrid'
p18
atp19
bsS'data_strain'
p20
(lp21
(dp22
S'reporte'
p23
VI did this once before but I only did one little rip with a bottle bong and it never really got me high but it made me relax and made me feel chill. I recommend if you are just bored and wanna have a quick smoke and chill out. Over all I like it but I prefer THC over CBD 
p24
sS'efectos'
p25
(lp26
S'Relaxed'
p27
asS'sabores'
p28
(lp29
S'Spicy/Herbal'
p30
asS'usuario'
p31
Vzachcroft6
p32
sa(dp33
g23
VVERY EXPENSIVE, works okay&lt; doctor said it would be like taking a xanax and it really isnt the same
p34
sg25
(lp35
sg28
(lp36
sg31
VDpryan88
p37
sas.