(dp0
S'strain'
p1
S'tree-of-life'
p2
sS'categorias'
p3
cnumpy.core.multiarray
_reconstruct
p4
(cnumpy
ndarray
p5
(I0
tp6
S'b'
p7
tp8
Rp9
(I1
(I1
tp10
cnumpy
dtype
p11
(S'O8'
p12
I0
I1
tp13
Rp14
(I3
S'|'
p15
NNNI-1
I-1
I63
tp16
bI00
(lp17
S'Hybrid'
p18
atp19
bsS'data_strain'
p20
(lp21
(dp22
S'reporte'
p23
VKnocked me out \u000a
p24
sS'efectos'
p25
(lp26
S'Giggly'
p27
aS'Happy'
p28
aS'Relaxed'
p29
aS'Sleepy'
p30
aS'Uplifted'
p31
asS'sabores'
p32
(lp33
S'Earthy'
p34
aS'Honey'
p35
asS'usuario'
p36
VYonatan
p37
sa(dp38
g23
VPleasant pine-like flavor and energetic, lucid high. Good stuff!
p39
sg25
(lp40
S'Creative'
p41
aS'Energetic'
p42
aS'Focused'
p43
ag28
asg32
(lp44
S'Tree'
p45
asg36
VdjBeeker
p46
sa(dp47
g23
Vgreat strain best for the holidays this and Christmas tree always hit in the fall got to love it 
p48
sg25
(lp49
S'Aroused'
p50
ag41
aS'Euphoric'
p51
ag43
ag27
ag28
aS'Hungry'
p52
ag29
ag30
aS'Tingly'
p53
ag31
aS'Dry Eyes'
p54
aS'Headache'
p55
asg32
(lp56
S'Citrus'
p57
ag34
aS'Lemon'
p58
aS'Lime'
p59
aS'Pine'
p60
aS'Pungent'
p61
aS'Sage'
p62
aS'Spicy/Herbal'
p63
aS'Tea'
p64
aS'Tobacco'
p65
ag45
aS'Fruit'
p66
aS'Woody'
p67
asg36
Vrellybaked85
p68
sas.