(dp0
S'strain'
p1
S'tropical-tang'
p2
sS'categorias'
p3
cnumpy.core.multiarray
_reconstruct
p4
(cnumpy
ndarray
p5
(I0
tp6
S'b'
p7
tp8
Rp9
(I1
(I1
tp10
cnumpy
dtype
p11
(S'O8'
p12
I0
I1
tp13
Rp14
(I3
S'|'
p15
NNNI-1
I-1
I63
tp16
bI00
(lp17
S'Hybrid'
p18
atp19
bsS'data_strain'
p20
(lp21
(dp22
S'reporte'
p23
Vjust picked up and i am definitely satisfied. way better than that white elephant i had yesterday.Phenomenal high,taste great gorgeous color what more can I ask for.
p24
sS'efectos'
p25
(lp26
S'Creative'
p27
aS'Euphoric'
p28
aS'Focused'
p29
aS'Happy'
p30
aS'Relaxed'
p31
aS'Uplifted'
p32
asS'sabores'
p33
(lp34
S'Apricot'
p35
aS'Citrus'
p36
aS'Skunk'
p37
asS'usuario'
p38
Vkrs420lala
p39
sa(dp40
g23
Vas i&#39;m writing this shiz, i want you to know i&#39;m 100% skeed and ready to smoke my second tropical tang blunt. it&#39;s got my body feelin nice af and my girls lookin hella good. yeet
p41
sg25
(lp42
sg33
(lp43
S'Tropical'
p44
asg38
Vnotacop25
p45
sa(dp46
g23
VGreat strain, very chill, but not tiring unless you hit it a bunch or are already very tired.  Interesting taste, not full of citrus flavor but a definite flavor, and also very smooth.  Great for a nice relaxing day.
p47
sg25
(lp48
g27
ag28
ag29
aS'Hungry'
p49
ag31
aS'Dry Mouth'
p50
asg33
(lp51
g44
asg38
Vcmphox
p52
sa(dp53
g23
VThis strain has quickly joined the ranks of my favorite strains. A very happy feeling and mood lifter. Great for gaming and reading as well. The aroma of the buds is very potent and would love to see this strain featured as an oil cartridge.
p54
sg25
(lp55
g27
aS'Energetic'
p56
ag28
ag29
ag30
ag32
asg33
(lp57
g35
ag36
aS'Earthy'
p58
asg38
VVernSavage420
p59
sas.