(dp0
S'strain'
p1
S'ultra-sour'
p2
sS'categorias'
p3
cnumpy.core.multiarray
_reconstruct
p4
(cnumpy
ndarray
p5
(I0
tp6
S'b'
p7
tp8
Rp9
(I1
(I1
tp10
cnumpy
dtype
p11
(S'O8'
p12
I0
I1
tp13
Rp14
(I3
S'|'
p15
NNNI-1
I-1
I63
tp16
bI00
(lp17
S'Sativa'
p18
atp19
bsS'data_strain'
p20
(lp21
(dp22
S'reporte'
p23
Vphenomenal stuff! super happy and euphoric feel. 
p24
sS'efectos'
p25
(lp26
S'Creative'
p27
aS'Energetic'
p28
aS'Happy'
p29
aS'Relaxed'
p30
aS'Talkative'
p31
aS'Uplifted'
p32
aS'Dry Mouth'
p33
asS'sabores'
p34
(lp35
sS'usuario'
p36
Vdanimal39
p37
sa(dp38
g23
VThis is a beautiful strain to grow and smoke. Super frosty, dense buds. packs a clear-headed punch. Can induce anxiety.
p39
sg25
(lp40
g27
ag28
aS'Euphoric'
p41
aS'Focused'
p42
ag32
aS'Anxious'
p43
asg34
(lp44
S'Diesel'
p45
aS'Earthy'
p46
aS'Lime'
p47
aS'Nutty'
p48
aS'Skunk'
p49
asg36
Vsupernaturalgardens
p50
sa(dp51
g23
VMy new fav sativa. Packs a punch but leaves you feeling lovely. 
p52
sg25
(lp53
sg34
(lp54
sg36
VDiori86
p55
sa(dp56
g23
Vhaven&#39;t tried it, looking forward....
p57
sg25
(lp58
sg34
(lp59
sg36
Valice1979
p60
sas.