(dp0
S'strain'
p1
S'webster'
p2
sS'categorias'
p3
cnumpy.core.multiarray
_reconstruct
p4
(cnumpy
ndarray
p5
(I0
tp6
S'b'
p7
tp8
Rp9
(I1
(I1
tp10
cnumpy
dtype
p11
(S'O8'
p12
I0
I1
tp13
Rp14
(I3
S'|'
p15
NNNI-1
I-1
I63
tp16
bI00
(lp17
S'Sativa'
p18
atp19
bsS'data_strain'
p20
(lp21
(dp22
S'reporte'
p23
Vnot a super great sativa imo.
p24
sS'efectos'
p25
(lp26
S'Energetic'
p27
aS'Anxious'
p28
aS'Dry Eyes'
p29
asS'sabores'
p30
(lp31
sS'usuario'
p32
Vvanyas
p33
sas.