(dp0
S'strain'
p1
S'yogi-diesel'
p2
sS'categorias'
p3
cnumpy.core.multiarray
_reconstruct
p4
(cnumpy
ndarray
p5
(I0
tp6
S'b'
p7
tp8
Rp9
(I1
(I1
tp10
cnumpy
dtype
p11
(S'O8'
p12
I0
I1
tp13
Rp14
(I3
S'|'
p15
NNNI-1
I-1
I63
tp16
bI00
(lp17
S'Hybrid'
p18
atp19
bsS'data_strain'
p20
(lp21
(dp22
S'reporte'
p23
Vbigdongles apparently paid for yogi diesel but was sold dirt. dank stuff. full review coming
p24
sS'efectos'
p25
(lp26
sS'sabores'
p27
(lp28
S'Diesel'
p29
asS'usuario'
p30
Vflipndip187
p31
sa(dp32
g23
VThis strain provides a nice head high, where your thoughts are at the forefront of the high, providing a nice channel for philosophical discussion with friends, or to reflect on life or the day&#39;s tasks on your own. Stays true to the diesel flavor, and the color being an ambient light green with visible trichomes and hairs all over. The texture isn&#39;t too sticky, but the high feels like it should be. Really the only negative I&#39;ve noticed so far is above average cotton mouth and dry throat. Make sure you have a beverage on hand and enjoy this solid strain! 
p33
sg25
(lp34
S'Euphoric'
p35
aS'Tingly'
p36
aS'Uplifted'
p37
aS'Anxious'
p38
aS'Dry Mouth'
p39
asg27
(lp40
S'Citrus'
p41
ag29
aS'Flowery'
p42
aS'Pine'
p43
aS'Sweet'
p44
asg30
Vmitchkins
p45
sa(dp46
g23
VGarbage, I smoked it, damn near threw up from this reg.
p47
sg25
(lp48
sg27
(lp49
g29
asg30
VBigDongles
p50
sas.